ARM GAS  C:\Users\User\AppData\Local\Temp\ccceaWEK.s 			page 1


   1              		.syntax unified
   2              		.cpu cortex-m3
   3              		.fpu softvfp
   4              		.eabi_attribute 20, 1
   5              		.eabi_attribute 21, 1
   6              		.eabi_attribute 23, 3
   7              		.eabi_attribute 24, 1
   8              		.eabi_attribute 25, 1
   9              		.eabi_attribute 26, 1
  10              		.eabi_attribute 30, 6
  11              		.eabi_attribute 34, 1
  12              		.eabi_attribute 18, 4
  13              		.thumb
  14              		.syntax unified
  15              		.file	"cyfitter_cfg.c"
  16              		.text
  17              	.Ltext0:
  18              		.cfi_sections	.debug_frame
  19              		.section	.text.CYMEMZERO,"ax",%progbits
  20              		.align	2
  21              		.thumb
  22              		.thumb_func
  23              		.type	CYMEMZERO, %function
  24              	CYMEMZERO:
  25              	.LFB0:
  26              		.file 1 "Generated_Source\\PSoC5\\cyfitter_cfg.c"
   1:Generated_Source\PSoC5/cyfitter_cfg.c **** 
   2:Generated_Source\PSoC5/cyfitter_cfg.c **** /*******************************************************************************
   3:Generated_Source\PSoC5/cyfitter_cfg.c **** * File Name: cyfitter_cfg.c
   4:Generated_Source\PSoC5/cyfitter_cfg.c **** * 
   5:Generated_Source\PSoC5/cyfitter_cfg.c **** * PSoC Creator  4.4
   6:Generated_Source\PSoC5/cyfitter_cfg.c **** *
   7:Generated_Source\PSoC5/cyfitter_cfg.c **** * Description:
   8:Generated_Source\PSoC5/cyfitter_cfg.c **** * This file contains device initialization code.
   9:Generated_Source\PSoC5/cyfitter_cfg.c **** * Except for the user defined sections in CyClockStartupError(), this file should not be modified.
  10:Generated_Source\PSoC5/cyfitter_cfg.c **** * This file is automatically generated by PSoC Creator.
  11:Generated_Source\PSoC5/cyfitter_cfg.c **** *
  12:Generated_Source\PSoC5/cyfitter_cfg.c **** ********************************************************************************
  13:Generated_Source\PSoC5/cyfitter_cfg.c **** * Copyright (c) 2007-2020 Cypress Semiconductor.  All rights reserved.
  14:Generated_Source\PSoC5/cyfitter_cfg.c **** * You may use this file only in accordance with the license, terms, conditions, 
  15:Generated_Source\PSoC5/cyfitter_cfg.c **** * disclaimers, and limitations in the end user license agreement accompanying 
  16:Generated_Source\PSoC5/cyfitter_cfg.c **** * the software package with which this file was provided.
  17:Generated_Source\PSoC5/cyfitter_cfg.c **** ********************************************************************************/
  18:Generated_Source\PSoC5/cyfitter_cfg.c **** 
  19:Generated_Source\PSoC5/cyfitter_cfg.c **** #include <string.h>
  20:Generated_Source\PSoC5/cyfitter_cfg.c **** #include "cytypes.h"
  21:Generated_Source\PSoC5/cyfitter_cfg.c **** #include "cydevice_trm.h"
  22:Generated_Source\PSoC5/cyfitter_cfg.c **** #include "cyfitter.h"
  23:Generated_Source\PSoC5/cyfitter_cfg.c **** #include "CyLib.h"
  24:Generated_Source\PSoC5/cyfitter_cfg.c **** #include "cyfitter_cfg.h"
  25:Generated_Source\PSoC5/cyfitter_cfg.c **** 
  26:Generated_Source\PSoC5/cyfitter_cfg.c **** #define CY_NEED_CYCLOCKSTARTUPERROR 1
  27:Generated_Source\PSoC5/cyfitter_cfg.c **** 
  28:Generated_Source\PSoC5/cyfitter_cfg.c **** 
  29:Generated_Source\PSoC5/cyfitter_cfg.c **** #if defined(__GNUC__) || defined(__ARMCC_VERSION)
  30:Generated_Source\PSoC5/cyfitter_cfg.c ****     #define CYPACKED 
  31:Generated_Source\PSoC5/cyfitter_cfg.c ****     #define CYPACKED_ATTR __attribute__ ((packed))
ARM GAS  C:\Users\User\AppData\Local\Temp\ccceaWEK.s 			page 2


  32:Generated_Source\PSoC5/cyfitter_cfg.c ****     #define CYALIGNED __attribute__ ((aligned))
  33:Generated_Source\PSoC5/cyfitter_cfg.c ****     #define CY_CFG_UNUSED __attribute__ ((unused))
  34:Generated_Source\PSoC5/cyfitter_cfg.c ****     #ifndef CY_CFG_SECTION
  35:Generated_Source\PSoC5/cyfitter_cfg.c ****         #define CY_CFG_SECTION __attribute__ ((section(".psocinit")))
  36:Generated_Source\PSoC5/cyfitter_cfg.c ****     #endif
  37:Generated_Source\PSoC5/cyfitter_cfg.c ****     
  38:Generated_Source\PSoC5/cyfitter_cfg.c ****     #if defined(__ARMCC_VERSION)
  39:Generated_Source\PSoC5/cyfitter_cfg.c ****         #define CY_CFG_MEMORY_BARRIER() __memory_changed()
  40:Generated_Source\PSoC5/cyfitter_cfg.c ****     #else
  41:Generated_Source\PSoC5/cyfitter_cfg.c ****         #define CY_CFG_MEMORY_BARRIER() __sync_synchronize()
  42:Generated_Source\PSoC5/cyfitter_cfg.c ****     #endif
  43:Generated_Source\PSoC5/cyfitter_cfg.c ****     
  44:Generated_Source\PSoC5/cyfitter_cfg.c **** #elif defined(__ICCARM__)
  45:Generated_Source\PSoC5/cyfitter_cfg.c ****     #include <intrinsics.h>
  46:Generated_Source\PSoC5/cyfitter_cfg.c **** 
  47:Generated_Source\PSoC5/cyfitter_cfg.c ****     #define CYPACKED __packed
  48:Generated_Source\PSoC5/cyfitter_cfg.c ****     #define CYPACKED_ATTR 
  49:Generated_Source\PSoC5/cyfitter_cfg.c ****     #define CYALIGNED _Pragma("data_alignment=4")
  50:Generated_Source\PSoC5/cyfitter_cfg.c ****     #define CY_CFG_UNUSED _Pragma("diag_suppress=Pe177")
  51:Generated_Source\PSoC5/cyfitter_cfg.c ****     #define CY_CFG_SECTION _Pragma("location=\".psocinit\"")
  52:Generated_Source\PSoC5/cyfitter_cfg.c ****     
  53:Generated_Source\PSoC5/cyfitter_cfg.c ****     #define CY_CFG_MEMORY_BARRIER() __DMB()
  54:Generated_Source\PSoC5/cyfitter_cfg.c ****     
  55:Generated_Source\PSoC5/cyfitter_cfg.c **** #else
  56:Generated_Source\PSoC5/cyfitter_cfg.c ****     #error Unsupported toolchain
  57:Generated_Source\PSoC5/cyfitter_cfg.c **** #endif
  58:Generated_Source\PSoC5/cyfitter_cfg.c **** 
  59:Generated_Source\PSoC5/cyfitter_cfg.c **** #ifndef CYCODE
  60:Generated_Source\PSoC5/cyfitter_cfg.c ****     #define CYCODE
  61:Generated_Source\PSoC5/cyfitter_cfg.c **** #endif
  62:Generated_Source\PSoC5/cyfitter_cfg.c **** #ifndef CYDATA
  63:Generated_Source\PSoC5/cyfitter_cfg.c ****     #define CYDATA
  64:Generated_Source\PSoC5/cyfitter_cfg.c **** #endif
  65:Generated_Source\PSoC5/cyfitter_cfg.c **** #ifndef CYFAR
  66:Generated_Source\PSoC5/cyfitter_cfg.c ****     #define CYFAR
  67:Generated_Source\PSoC5/cyfitter_cfg.c **** #endif
  68:Generated_Source\PSoC5/cyfitter_cfg.c **** #ifndef CYXDATA
  69:Generated_Source\PSoC5/cyfitter_cfg.c ****     #define CYXDATA
  70:Generated_Source\PSoC5/cyfitter_cfg.c **** #endif
  71:Generated_Source\PSoC5/cyfitter_cfg.c **** 
  72:Generated_Source\PSoC5/cyfitter_cfg.c **** 
  73:Generated_Source\PSoC5/cyfitter_cfg.c **** CY_CFG_UNUSED
  74:Generated_Source\PSoC5/cyfitter_cfg.c **** static void CYMEMZERO(void *s, size_t n);
  75:Generated_Source\PSoC5/cyfitter_cfg.c **** CY_CFG_UNUSED
  76:Generated_Source\PSoC5/cyfitter_cfg.c **** static void CYMEMZERO(void *s, size_t n)
  77:Generated_Source\PSoC5/cyfitter_cfg.c **** {
  27              		.loc 1 77 0
  28              		.cfi_startproc
  29              		@ args = 0, pretend = 0, frame = 8
  30              		@ frame_needed = 1, uses_anonymous_args = 0
  31 0000 80B5     		push	{r7, lr}
  32              		.cfi_def_cfa_offset 8
  33              		.cfi_offset 7, -8
  34              		.cfi_offset 14, -4
  35 0002 82B0     		sub	sp, sp, #8
  36              		.cfi_def_cfa_offset 16
  37 0004 00AF     		add	r7, sp, #0
ARM GAS  C:\Users\User\AppData\Local\Temp\ccceaWEK.s 			page 3


  38              		.cfi_def_cfa_register 7
  39 0006 7860     		str	r0, [r7, #4]
  40 0008 3960     		str	r1, [r7]
  78:Generated_Source\PSoC5/cyfitter_cfg.c **** 	(void)memset(s, 0, n);
  41              		.loc 1 78 0
  42 000a 3A68     		ldr	r2, [r7]
  43 000c 0021     		movs	r1, #0
  44 000e 7868     		ldr	r0, [r7, #4]
  45 0010 FFF7FEFF 		bl	memset
  79:Generated_Source\PSoC5/cyfitter_cfg.c **** }
  46              		.loc 1 79 0
  47 0014 00BF     		nop
  48 0016 0837     		adds	r7, r7, #8
  49              		.cfi_def_cfa_offset 8
  50 0018 BD46     		mov	sp, r7
  51              		.cfi_def_cfa_register 13
  52              		@ sp needed
  53 001a 80BD     		pop	{r7, pc}
  54              		.cfi_endproc
  55              	.LFE0:
  56              		.size	CYMEMZERO, .-CYMEMZERO
  57              		.section	.text.CYCONFIGCPY,"ax",%progbits
  58              		.align	2
  59              		.thumb
  60              		.thumb_func
  61              		.type	CYCONFIGCPY, %function
  62              	CYCONFIGCPY:
  63              	.LFB1:
  80:Generated_Source\PSoC5/cyfitter_cfg.c **** CY_CFG_UNUSED
  81:Generated_Source\PSoC5/cyfitter_cfg.c **** static void CYCONFIGCPY(void *dest, const void *src, size_t n);
  82:Generated_Source\PSoC5/cyfitter_cfg.c **** CY_CFG_UNUSED
  83:Generated_Source\PSoC5/cyfitter_cfg.c **** static void CYCONFIGCPY(void *dest, const void *src, size_t n)
  84:Generated_Source\PSoC5/cyfitter_cfg.c **** {
  64              		.loc 1 84 0
  65              		.cfi_startproc
  66              		@ args = 0, pretend = 0, frame = 16
  67              		@ frame_needed = 1, uses_anonymous_args = 0
  68 0000 80B5     		push	{r7, lr}
  69              		.cfi_def_cfa_offset 8
  70              		.cfi_offset 7, -8
  71              		.cfi_offset 14, -4
  72 0002 84B0     		sub	sp, sp, #16
  73              		.cfi_def_cfa_offset 24
  74 0004 00AF     		add	r7, sp, #0
  75              		.cfi_def_cfa_register 7
  76 0006 F860     		str	r0, [r7, #12]
  77 0008 B960     		str	r1, [r7, #8]
  78 000a 7A60     		str	r2, [r7, #4]
  85:Generated_Source\PSoC5/cyfitter_cfg.c **** 	(void)memcpy(dest, src, n);
  79              		.loc 1 85 0
  80 000c 7A68     		ldr	r2, [r7, #4]
  81 000e B968     		ldr	r1, [r7, #8]
  82 0010 F868     		ldr	r0, [r7, #12]
  83 0012 FFF7FEFF 		bl	memcpy
  86:Generated_Source\PSoC5/cyfitter_cfg.c **** }
  84              		.loc 1 86 0
  85 0016 00BF     		nop
ARM GAS  C:\Users\User\AppData\Local\Temp\ccceaWEK.s 			page 4


  86 0018 1037     		adds	r7, r7, #16
  87              		.cfi_def_cfa_offset 8
  88 001a BD46     		mov	sp, r7
  89              		.cfi_def_cfa_register 13
  90              		@ sp needed
  91 001c 80BD     		pop	{r7, pc}
  92              		.cfi_endproc
  93              	.LFE1:
  94              		.size	CYCONFIGCPY, .-CYCONFIGCPY
  95 001e 00BF     		.section	.text.CYCONFIGCPYCODE,"ax",%progbits
  96              		.align	2
  97              		.thumb
  98              		.thumb_func
  99              		.type	CYCONFIGCPYCODE, %function
 100              	CYCONFIGCPYCODE:
 101              	.LFB2:
  87:Generated_Source\PSoC5/cyfitter_cfg.c **** CY_CFG_UNUSED
  88:Generated_Source\PSoC5/cyfitter_cfg.c **** static void CYCONFIGCPYCODE(void *dest, const void *src, size_t n);
  89:Generated_Source\PSoC5/cyfitter_cfg.c **** CY_CFG_UNUSED
  90:Generated_Source\PSoC5/cyfitter_cfg.c **** static void CYCONFIGCPYCODE(void *dest, const void *src, size_t n)
  91:Generated_Source\PSoC5/cyfitter_cfg.c **** {
 102              		.loc 1 91 0
 103              		.cfi_startproc
 104              		@ args = 0, pretend = 0, frame = 16
 105              		@ frame_needed = 1, uses_anonymous_args = 0
 106 0000 80B5     		push	{r7, lr}
 107              		.cfi_def_cfa_offset 8
 108              		.cfi_offset 7, -8
 109              		.cfi_offset 14, -4
 110 0002 84B0     		sub	sp, sp, #16
 111              		.cfi_def_cfa_offset 24
 112 0004 00AF     		add	r7, sp, #0
 113              		.cfi_def_cfa_register 7
 114 0006 F860     		str	r0, [r7, #12]
 115 0008 B960     		str	r1, [r7, #8]
 116 000a 7A60     		str	r2, [r7, #4]
  92:Generated_Source\PSoC5/cyfitter_cfg.c **** 	(void)memcpy(dest, src, n);
 117              		.loc 1 92 0
 118 000c 7A68     		ldr	r2, [r7, #4]
 119 000e B968     		ldr	r1, [r7, #8]
 120 0010 F868     		ldr	r0, [r7, #12]
 121 0012 FFF7FEFF 		bl	memcpy
  93:Generated_Source\PSoC5/cyfitter_cfg.c **** }
 122              		.loc 1 93 0
 123 0016 00BF     		nop
 124 0018 1037     		adds	r7, r7, #16
 125              		.cfi_def_cfa_offset 8
 126 001a BD46     		mov	sp, r7
 127              		.cfi_def_cfa_register 13
 128              		@ sp needed
 129 001c 80BD     		pop	{r7, pc}
 130              		.cfi_endproc
 131              	.LFE2:
 132              		.size	CYCONFIGCPYCODE, .-CYCONFIGCPYCODE
 133 001e 00BF     		.section	.text.CyClockStartupError,"ax",%progbits
 134              		.align	2
 135              		.thumb
ARM GAS  C:\Users\User\AppData\Local\Temp\ccceaWEK.s 			page 5


 136              		.thumb_func
 137              		.type	CyClockStartupError, %function
 138              	CyClockStartupError:
 139              	.LFB3:
  94:Generated_Source\PSoC5/cyfitter_cfg.c **** 
  95:Generated_Source\PSoC5/cyfitter_cfg.c **** 
  96:Generated_Source\PSoC5/cyfitter_cfg.c **** 
  97:Generated_Source\PSoC5/cyfitter_cfg.c **** 
  98:Generated_Source\PSoC5/cyfitter_cfg.c **** /* Clock startup error codes                                                   */
  99:Generated_Source\PSoC5/cyfitter_cfg.c **** #define CYCLOCKSTART_NO_ERROR    0u
 100:Generated_Source\PSoC5/cyfitter_cfg.c **** #define CYCLOCKSTART_XTAL_ERROR  1u
 101:Generated_Source\PSoC5/cyfitter_cfg.c **** #define CYCLOCKSTART_32KHZ_ERROR 2u
 102:Generated_Source\PSoC5/cyfitter_cfg.c **** #define CYCLOCKSTART_PLL_ERROR   3u
 103:Generated_Source\PSoC5/cyfitter_cfg.c **** #define CYCLOCKSTART_FLL_ERROR   4u
 104:Generated_Source\PSoC5/cyfitter_cfg.c **** #define CYCLOCKSTART_WCO_ERROR   5u
 105:Generated_Source\PSoC5/cyfitter_cfg.c **** 
 106:Generated_Source\PSoC5/cyfitter_cfg.c **** 
 107:Generated_Source\PSoC5/cyfitter_cfg.c **** #ifdef CY_NEED_CYCLOCKSTARTUPERROR
 108:Generated_Source\PSoC5/cyfitter_cfg.c **** /*******************************************************************************
 109:Generated_Source\PSoC5/cyfitter_cfg.c **** * Function Name: CyClockStartupError
 110:Generated_Source\PSoC5/cyfitter_cfg.c **** ********************************************************************************
 111:Generated_Source\PSoC5/cyfitter_cfg.c **** * Summary:
 112:Generated_Source\PSoC5/cyfitter_cfg.c **** *  If an error is encountered during clock configuration (crystal startup error,
 113:Generated_Source\PSoC5/cyfitter_cfg.c **** *  PLL lock error, etc.), the system will end up here.  Unless reimplemented by
 114:Generated_Source\PSoC5/cyfitter_cfg.c **** *  the customer, this function will stop in an infinite loop.
 115:Generated_Source\PSoC5/cyfitter_cfg.c **** *
 116:Generated_Source\PSoC5/cyfitter_cfg.c **** * Parameters:
 117:Generated_Source\PSoC5/cyfitter_cfg.c **** *   void
 118:Generated_Source\PSoC5/cyfitter_cfg.c **** *
 119:Generated_Source\PSoC5/cyfitter_cfg.c **** * Return:
 120:Generated_Source\PSoC5/cyfitter_cfg.c **** *   void
 121:Generated_Source\PSoC5/cyfitter_cfg.c **** *
 122:Generated_Source\PSoC5/cyfitter_cfg.c **** *******************************************************************************/
 123:Generated_Source\PSoC5/cyfitter_cfg.c **** CY_CFG_UNUSED
 124:Generated_Source\PSoC5/cyfitter_cfg.c **** static void CyClockStartupError(uint8 errorCode);
 125:Generated_Source\PSoC5/cyfitter_cfg.c **** CY_CFG_UNUSED
 126:Generated_Source\PSoC5/cyfitter_cfg.c **** static void CyClockStartupError(uint8 errorCode)
 127:Generated_Source\PSoC5/cyfitter_cfg.c **** {
 140              		.loc 1 127 0
 141              		.cfi_startproc
 142              		@ args = 0, pretend = 0, frame = 8
 143              		@ frame_needed = 1, uses_anonymous_args = 0
 144              		@ link register save eliminated.
 145 0000 80B4     		push	{r7}
 146              		.cfi_def_cfa_offset 4
 147              		.cfi_offset 7, -4
 148 0002 83B0     		sub	sp, sp, #12
 149              		.cfi_def_cfa_offset 16
 150 0004 00AF     		add	r7, sp, #0
 151              		.cfi_def_cfa_register 7
 152 0006 0346     		mov	r3, r0
 153 0008 FB71     		strb	r3, [r7, #7]
 154              	.L5:
 128:Generated_Source\PSoC5/cyfitter_cfg.c ****     /* To remove the compiler warning if errorCode not used.                */
 129:Generated_Source\PSoC5/cyfitter_cfg.c ****     errorCode = errorCode;
 130:Generated_Source\PSoC5/cyfitter_cfg.c **** 
 131:Generated_Source\PSoC5/cyfitter_cfg.c ****     /* If we have a clock startup error (bad MHz crystal, PLL lock, etc.),  */
ARM GAS  C:\Users\User\AppData\Local\Temp\ccceaWEK.s 			page 6


 132:Generated_Source\PSoC5/cyfitter_cfg.c ****     /* we will end up here to allow the customer to implement something to  */
 133:Generated_Source\PSoC5/cyfitter_cfg.c ****     /* deal with the clock condition.                                       */
 134:Generated_Source\PSoC5/cyfitter_cfg.c **** 
 135:Generated_Source\PSoC5/cyfitter_cfg.c **** #ifdef CY_CFG_CLOCK_STARTUP_ERROR_CALLBACK
 136:Generated_Source\PSoC5/cyfitter_cfg.c ****     CY_CFG_Clock_Startup_ErrorCallback();
 137:Generated_Source\PSoC5/cyfitter_cfg.c **** #else
 138:Generated_Source\PSoC5/cyfitter_cfg.c ****     /*  If not using CY_CFG_CLOCK_STARTUP_ERROR_CALLBACK, place your clock startup code here. */
 139:Generated_Source\PSoC5/cyfitter_cfg.c ****     /* `#START CyClockStartupError` */
 140:Generated_Source\PSoC5/cyfitter_cfg.c **** 
 141:Generated_Source\PSoC5/cyfitter_cfg.c **** 
 142:Generated_Source\PSoC5/cyfitter_cfg.c **** 
 143:Generated_Source\PSoC5/cyfitter_cfg.c ****     /* `#END` */
 144:Generated_Source\PSoC5/cyfitter_cfg.c **** 
 145:Generated_Source\PSoC5/cyfitter_cfg.c ****     while(1) {}
 155              		.loc 1 145 0 discriminator 1
 156 000a FEE7     		b	.L5
 157              		.cfi_endproc
 158              	.LFE3:
 159              		.size	CyClockStartupError, .-CyClockStartupError
 160              		.section	.text.ClockSetup,"ax",%progbits
 161              		.align	2
 162              		.thumb
 163              		.thumb_func
 164              		.type	ClockSetup, %function
 165              	ClockSetup:
 166              	.LFB4:
 146:Generated_Source\PSoC5/cyfitter_cfg.c **** #endif /* CY_CFG_CLOCK_STARTUP_ERROR_CALLBACK */
 147:Generated_Source\PSoC5/cyfitter_cfg.c **** }
 148:Generated_Source\PSoC5/cyfitter_cfg.c **** #endif
 149:Generated_Source\PSoC5/cyfitter_cfg.c **** 
 150:Generated_Source\PSoC5/cyfitter_cfg.c **** /* IOPORT_6 Address: CYDEV_PRTDSI_PRT6_BASE Size (bytes): 7 */
 151:Generated_Source\PSoC5/cyfitter_cfg.c **** #define BS_IOPORT_6_VAL ((const uint8 CYFAR *)0x48000000u)
 152:Generated_Source\PSoC5/cyfitter_cfg.c **** 
 153:Generated_Source\PSoC5/cyfitter_cfg.c **** /* IOPORT_8 Address: CYDEV_PRTDSI_PRT15_BASE Size (bytes): 7 */
 154:Generated_Source\PSoC5/cyfitter_cfg.c **** #define BS_IOPORT_8_VAL ((const uint8 CYFAR *)0x48000008u)
 155:Generated_Source\PSoC5/cyfitter_cfg.c **** 
 156:Generated_Source\PSoC5/cyfitter_cfg.c **** /* PICU_8 Address: CYDEV_PICU_INTTYPE_PICU15_BASE Size (bytes): 8 */
 157:Generated_Source\PSoC5/cyfitter_cfg.c **** #define BS_PICU_8_VAL ((const uint8 CYFAR *)0x48000010u)
 158:Generated_Source\PSoC5/cyfitter_cfg.c **** 
 159:Generated_Source\PSoC5/cyfitter_cfg.c **** /* IDMUX_IRQ Address: CYREG_IDMUX_IRQ_CTL0 Size (bytes): 8 */
 160:Generated_Source\PSoC5/cyfitter_cfg.c **** #define BS_IDMUX_IRQ_VAL ((const uint8 CYFAR *)0x48000018u)
 161:Generated_Source\PSoC5/cyfitter_cfg.c **** 
 162:Generated_Source\PSoC5/cyfitter_cfg.c **** /* UDB_0_4_1_CONFIG Address: CYDEV_UCFG_B0_P6_U0_BASE Size (bytes): 128 */
 163:Generated_Source\PSoC5/cyfitter_cfg.c **** #define BS_UDB_0_4_1_CONFIG_VAL ((const uint8 CYFAR *)0x48000020u)
 164:Generated_Source\PSoC5/cyfitter_cfg.c **** 
 165:Generated_Source\PSoC5/cyfitter_cfg.c **** /* UDB_0_4_0_CONFIG Address: CYDEV_UCFG_B0_P6_U1_BASE Size (bytes): 128 */
 166:Generated_Source\PSoC5/cyfitter_cfg.c **** #define BS_UDB_0_4_0_CONFIG_VAL ((const uint8 CYFAR *)0x480000A0u)
 167:Generated_Source\PSoC5/cyfitter_cfg.c **** 
 168:Generated_Source\PSoC5/cyfitter_cfg.c **** /* UDB_0_5_0_CONFIG Address: CYDEV_UCFG_B0_P7_U0_BASE Size (bytes): 128 */
 169:Generated_Source\PSoC5/cyfitter_cfg.c **** #define BS_UDB_0_5_0_CONFIG_VAL ((const uint8 CYFAR *)0x48000120u)
 170:Generated_Source\PSoC5/cyfitter_cfg.c **** 
 171:Generated_Source\PSoC5/cyfitter_cfg.c **** /* UDB_0_5_1_CONFIG Address: CYDEV_UCFG_B0_P7_U1_BASE Size (bytes): 128 */
 172:Generated_Source\PSoC5/cyfitter_cfg.c **** #define BS_UDB_0_5_1_CONFIG_VAL ((const uint8 CYFAR *)0x480001A0u)
 173:Generated_Source\PSoC5/cyfitter_cfg.c **** 
 174:Generated_Source\PSoC5/cyfitter_cfg.c **** /* UCFG_BCTL0 Address: CYREG_BCTL0_MDCLK_EN Size (bytes): 16 */
 175:Generated_Source\PSoC5/cyfitter_cfg.c **** #define BS_UCFG_BCTL0_VAL ((const uint8 CYFAR *)0x48000220u)
 176:Generated_Source\PSoC5/cyfitter_cfg.c **** 
ARM GAS  C:\Users\User\AppData\Local\Temp\ccceaWEK.s 			page 7


 177:Generated_Source\PSoC5/cyfitter_cfg.c **** /* DSI0_0_HV_ROUTING Address: CYDEV_UCFG_DSI13_BASE + 0x00000080u Size (bytes): 128 */
 178:Generated_Source\PSoC5/cyfitter_cfg.c **** #define BS_DSI0_0_HV_ROUTING_VAL ((const uint8 CYFAR *)0x48000230u)
 179:Generated_Source\PSoC5/cyfitter_cfg.c **** 
 180:Generated_Source\PSoC5/cyfitter_cfg.c **** /* DSI0_1_HV_ROUTING Address: CYDEV_UCFG_DSI12_BASE + 0x00000080u Size (bytes): 128 */
 181:Generated_Source\PSoC5/cyfitter_cfg.c **** #define BS_DSI0_1_HV_ROUTING_VAL ((const uint8 CYFAR *)0x480002B0u)
 182:Generated_Source\PSoC5/cyfitter_cfg.c **** 
 183:Generated_Source\PSoC5/cyfitter_cfg.c **** /* DSISWITCH_0_2 Address: CYDEV_UCFG_DSI7_BASE Size (bytes): 128 */
 184:Generated_Source\PSoC5/cyfitter_cfg.c **** #define BS_DSISWITCH_0_2_VAL ((const uint8 CYFAR *)0x48000330u)
 185:Generated_Source\PSoC5/cyfitter_cfg.c **** 
 186:Generated_Source\PSoC5/cyfitter_cfg.c **** /* DSI0_2_HV_ROUTING Address: CYDEV_UCFG_DSI7_BASE + 0x00000080u Size (bytes): 128 */
 187:Generated_Source\PSoC5/cyfitter_cfg.c **** #define BS_DSI0_2_HV_ROUTING_VAL ((const uint8 CYFAR *)0x480003B0u)
 188:Generated_Source\PSoC5/cyfitter_cfg.c **** 
 189:Generated_Source\PSoC5/cyfitter_cfg.c **** /* DSISWITCH_0_3 Address: CYDEV_UCFG_DSI6_BASE Size (bytes): 128 */
 190:Generated_Source\PSoC5/cyfitter_cfg.c **** #define BS_DSISWITCH_0_3_VAL ((const uint8 CYFAR *)0x48000430u)
 191:Generated_Source\PSoC5/cyfitter_cfg.c **** 
 192:Generated_Source\PSoC5/cyfitter_cfg.c **** /* DSI0_3_HV_ROUTING Address: CYDEV_UCFG_DSI6_BASE + 0x00000080u Size (bytes): 128 */
 193:Generated_Source\PSoC5/cyfitter_cfg.c **** #define BS_DSI0_3_HV_ROUTING_VAL ((const uint8 CYFAR *)0x480004B0u)
 194:Generated_Source\PSoC5/cyfitter_cfg.c **** 
 195:Generated_Source\PSoC5/cyfitter_cfg.c **** /* DSI0_4_HV_ROUTING Address: CYDEV_UCFG_DSI5_BASE + 0x00000080u Size (bytes): 128 */
 196:Generated_Source\PSoC5/cyfitter_cfg.c **** #define BS_DSI0_4_HV_ROUTING_VAL ((const uint8 CYFAR *)0x48000530u)
 197:Generated_Source\PSoC5/cyfitter_cfg.c **** 
 198:Generated_Source\PSoC5/cyfitter_cfg.c **** /* DSISWITCH_0_5 Address: CYDEV_UCFG_DSI4_BASE Size (bytes): 128 */
 199:Generated_Source\PSoC5/cyfitter_cfg.c **** #define BS_DSISWITCH_0_5_VAL ((const uint8 CYFAR *)0x480005B0u)
 200:Generated_Source\PSoC5/cyfitter_cfg.c **** 
 201:Generated_Source\PSoC5/cyfitter_cfg.c **** /* DSI0_5_HV_ROUTING Address: CYDEV_UCFG_DSI4_BASE + 0x00000080u Size (bytes): 128 */
 202:Generated_Source\PSoC5/cyfitter_cfg.c **** #define BS_DSI0_5_HV_ROUTING_VAL ((const uint8 CYFAR *)0x48000630u)
 203:Generated_Source\PSoC5/cyfitter_cfg.c **** 
 204:Generated_Source\PSoC5/cyfitter_cfg.c **** /* UDB_1_0_HV_ROUTING Address: CYDEV_UCFG_B1_P5_ROUTE_BASE + 0x00000080u Size (bytes): 128 */
 205:Generated_Source\PSoC5/cyfitter_cfg.c **** #define BS_UDB_1_0_HV_ROUTING_VAL ((const uint8 CYFAR *)0x480006B0u)
 206:Generated_Source\PSoC5/cyfitter_cfg.c **** 
 207:Generated_Source\PSoC5/cyfitter_cfg.c **** /* UDB_2_0_HV_ROUTING Address: CYDEV_UCFG_B1_P2_ROUTE_BASE + 0x00000080u Size (bytes): 128 */
 208:Generated_Source\PSoC5/cyfitter_cfg.c **** #define BS_UDB_2_0_HV_ROUTING_VAL ((const uint8 CYFAR *)0x48000730u)
 209:Generated_Source\PSoC5/cyfitter_cfg.c **** 
 210:Generated_Source\PSoC5/cyfitter_cfg.c **** /* UDB_1_1_HV_ROUTING Address: CYDEV_UCFG_B1_P4_ROUTE_BASE + 0x00000080u Size (bytes): 128 */
 211:Generated_Source\PSoC5/cyfitter_cfg.c **** #define BS_UDB_1_1_HV_ROUTING_VAL ((const uint8 CYFAR *)0x480007B0u)
 212:Generated_Source\PSoC5/cyfitter_cfg.c **** 
 213:Generated_Source\PSoC5/cyfitter_cfg.c **** /* UDB_2_1_HV_ROUTING Address: CYDEV_UCFG_B1_P3_ROUTE_BASE + 0x00000080u Size (bytes): 128 */
 214:Generated_Source\PSoC5/cyfitter_cfg.c **** #define BS_UDB_2_1_HV_ROUTING_VAL ((const uint8 CYFAR *)0x48000830u)
 215:Generated_Source\PSoC5/cyfitter_cfg.c **** 
 216:Generated_Source\PSoC5/cyfitter_cfg.c **** /* UDBSWITCH_0_4 Address: CYDEV_UCFG_B0_P6_ROUTE_BASE Size (bytes): 128 */
 217:Generated_Source\PSoC5/cyfitter_cfg.c **** #define BS_UDBSWITCH_0_4_VAL ((const uint8 CYFAR *)0x480008B0u)
 218:Generated_Source\PSoC5/cyfitter_cfg.c **** 
 219:Generated_Source\PSoC5/cyfitter_cfg.c **** /* UDB_1_4_HV_ROUTING Address: CYDEV_UCFG_B0_P6_ROUTE_BASE + 0x00000080u Size (bytes): 128 */
 220:Generated_Source\PSoC5/cyfitter_cfg.c **** #define BS_UDB_1_4_HV_ROUTING_VAL ((const uint8 CYFAR *)0x48000930u)
 221:Generated_Source\PSoC5/cyfitter_cfg.c **** 
 222:Generated_Source\PSoC5/cyfitter_cfg.c **** /* UDB_2_4_HV_ROUTING Address: CYDEV_UCFG_B0_P1_ROUTE_BASE + 0x00000080u Size (bytes): 128 */
 223:Generated_Source\PSoC5/cyfitter_cfg.c **** #define BS_UDB_2_4_HV_ROUTING_VAL ((const uint8 CYFAR *)0x480009B0u)
 224:Generated_Source\PSoC5/cyfitter_cfg.c **** 
 225:Generated_Source\PSoC5/cyfitter_cfg.c **** /* UDBSWITCH_0_5 Address: CYDEV_UCFG_B0_P7_ROUTE_BASE Size (bytes): 128 */
 226:Generated_Source\PSoC5/cyfitter_cfg.c **** #define BS_UDBSWITCH_0_5_VAL ((const uint8 CYFAR *)0x48000A30u)
 227:Generated_Source\PSoC5/cyfitter_cfg.c **** 
 228:Generated_Source\PSoC5/cyfitter_cfg.c **** /* UDB_1_5_HV_ROUTING Address: CYDEV_UCFG_B0_P7_ROUTE_BASE + 0x00000080u Size (bytes): 128 */
 229:Generated_Source\PSoC5/cyfitter_cfg.c **** #define BS_UDB_1_5_HV_ROUTING_VAL ((const uint8 CYFAR *)0x48000AB0u)
 230:Generated_Source\PSoC5/cyfitter_cfg.c **** 
 231:Generated_Source\PSoC5/cyfitter_cfg.c **** /* DSI3_0_HV_ROUTING Address: CYDEV_UCFG_DSI9_BASE + 0x00000080u Size (bytes): 128 */
 232:Generated_Source\PSoC5/cyfitter_cfg.c **** #define BS_DSI3_0_HV_ROUTING_VAL ((const uint8 CYFAR *)0x48000B30u)
 233:Generated_Source\PSoC5/cyfitter_cfg.c **** 
ARM GAS  C:\Users\User\AppData\Local\Temp\ccceaWEK.s 			page 8


 234:Generated_Source\PSoC5/cyfitter_cfg.c **** /* DSISWITCH_1_1 Address: CYDEV_UCFG_DSI8_BASE Size (bytes): 128 */
 235:Generated_Source\PSoC5/cyfitter_cfg.c **** #define BS_DSISWITCH_1_1_VAL ((const uint8 CYFAR *)0x48000BB0u)
 236:Generated_Source\PSoC5/cyfitter_cfg.c **** 
 237:Generated_Source\PSoC5/cyfitter_cfg.c **** /* DSI3_1_HV_ROUTING Address: CYDEV_UCFG_DSI8_BASE + 0x00000080u Size (bytes): 128 */
 238:Generated_Source\PSoC5/cyfitter_cfg.c **** #define BS_DSI3_1_HV_ROUTING_VAL ((const uint8 CYFAR *)0x48000C30u)
 239:Generated_Source\PSoC5/cyfitter_cfg.c **** 
 240:Generated_Source\PSoC5/cyfitter_cfg.c **** /* DSISWITCH_1_2 Address: CYDEV_UCFG_DSI3_BASE Size (bytes): 128 */
 241:Generated_Source\PSoC5/cyfitter_cfg.c **** #define BS_DSISWITCH_1_2_VAL ((const uint8 CYFAR *)0x48000CB0u)
 242:Generated_Source\PSoC5/cyfitter_cfg.c **** 
 243:Generated_Source\PSoC5/cyfitter_cfg.c **** /* DSI3_2_HV_ROUTING Address: CYDEV_UCFG_DSI3_BASE + 0x00000080u Size (bytes): 128 */
 244:Generated_Source\PSoC5/cyfitter_cfg.c **** #define BS_DSI3_2_HV_ROUTING_VAL ((const uint8 CYFAR *)0x48000D30u)
 245:Generated_Source\PSoC5/cyfitter_cfg.c **** 
 246:Generated_Source\PSoC5/cyfitter_cfg.c **** /* DSI3_3_HV_ROUTING Address: CYDEV_UCFG_DSI2_BASE + 0x00000080u Size (bytes): 128 */
 247:Generated_Source\PSoC5/cyfitter_cfg.c **** #define BS_DSI3_3_HV_ROUTING_VAL ((const uint8 CYFAR *)0x48000DB0u)
 248:Generated_Source\PSoC5/cyfitter_cfg.c **** 
 249:Generated_Source\PSoC5/cyfitter_cfg.c **** /* DSI3_4_HV_ROUTING Address: CYDEV_UCFG_DSI1_BASE + 0x00000080u Size (bytes): 128 */
 250:Generated_Source\PSoC5/cyfitter_cfg.c **** #define BS_DSI3_4_HV_ROUTING_VAL ((const uint8 CYFAR *)0x48000E30u)
 251:Generated_Source\PSoC5/cyfitter_cfg.c **** 
 252:Generated_Source\PSoC5/cyfitter_cfg.c **** /* DSISWITCH_1_5 Address: CYDEV_UCFG_DSI0_BASE Size (bytes): 128 */
 253:Generated_Source\PSoC5/cyfitter_cfg.c **** #define BS_DSISWITCH_1_5_VAL ((const uint8 CYFAR *)0x48000EB0u)
 254:Generated_Source\PSoC5/cyfitter_cfg.c **** 
 255:Generated_Source\PSoC5/cyfitter_cfg.c **** /* DSI3_5_HV_ROUTING Address: CYDEV_UCFG_DSI0_BASE + 0x00000080u Size (bytes): 128 */
 256:Generated_Source\PSoC5/cyfitter_cfg.c **** #define BS_DSI3_5_HV_ROUTING_VAL ((const uint8 CYFAR *)0x48000F30u)
 257:Generated_Source\PSoC5/cyfitter_cfg.c **** 
 258:Generated_Source\PSoC5/cyfitter_cfg.c **** /* IOPINS0_0 Address: CYREG_PRT0_DM0 Size (bytes): 8 */
 259:Generated_Source\PSoC5/cyfitter_cfg.c **** #define BS_IOPINS0_0_VAL ((const uint8 CYFAR *)0x48000FB0u)
 260:Generated_Source\PSoC5/cyfitter_cfg.c **** 
 261:Generated_Source\PSoC5/cyfitter_cfg.c **** /* IOPINS0_8 Address: CYREG_PRT15_DR Size (bytes): 10 */
 262:Generated_Source\PSoC5/cyfitter_cfg.c **** #define BS_IOPINS0_8_VAL ((const uint8 CYFAR *)0x48000FB8u)
 263:Generated_Source\PSoC5/cyfitter_cfg.c **** 
 264:Generated_Source\PSoC5/cyfitter_cfg.c **** /* IOPINS0_1 Address: CYREG_PRT1_DM0 Size (bytes): 8 */
 265:Generated_Source\PSoC5/cyfitter_cfg.c **** #define BS_IOPINS0_1_VAL ((const uint8 CYFAR *)0x48000FC4u)
 266:Generated_Source\PSoC5/cyfitter_cfg.c **** 
 267:Generated_Source\PSoC5/cyfitter_cfg.c **** /* IOPINS0_2 Address: CYREG_PRT2_DM0 Size (bytes): 8 */
 268:Generated_Source\PSoC5/cyfitter_cfg.c **** #define BS_IOPINS0_2_VAL ((const uint8 CYFAR *)0x48000FCCu)
 269:Generated_Source\PSoC5/cyfitter_cfg.c **** 
 270:Generated_Source\PSoC5/cyfitter_cfg.c **** /* IOPINS0_6 Address: CYREG_PRT6_DM0 Size (bytes): 8 */
 271:Generated_Source\PSoC5/cyfitter_cfg.c **** #define BS_IOPINS0_6_VAL ((const uint8 CYFAR *)0x48000FD4u)
 272:Generated_Source\PSoC5/cyfitter_cfg.c **** 
 273:Generated_Source\PSoC5/cyfitter_cfg.c **** /* CYDEV_CLKDIST_ACFG0_CFG0 Address: CYREG_CLKDIST_ACFG0_CFG0 Size (bytes): 4 */
 274:Generated_Source\PSoC5/cyfitter_cfg.c **** #define BS_CYDEV_CLKDIST_ACFG0_CFG0_VAL ((const uint8 CYFAR *)0x48000FDCu)
 275:Generated_Source\PSoC5/cyfitter_cfg.c **** 
 276:Generated_Source\PSoC5/cyfitter_cfg.c **** 
 277:Generated_Source\PSoC5/cyfitter_cfg.c **** /*******************************************************************************
 278:Generated_Source\PSoC5/cyfitter_cfg.c **** * Function Name: ClockSetup
 279:Generated_Source\PSoC5/cyfitter_cfg.c **** ********************************************************************************
 280:Generated_Source\PSoC5/cyfitter_cfg.c **** *
 281:Generated_Source\PSoC5/cyfitter_cfg.c **** * Summary:
 282:Generated_Source\PSoC5/cyfitter_cfg.c **** *  Performs the initialization of all of the clocks in the device based on the
 283:Generated_Source\PSoC5/cyfitter_cfg.c **** *  settings in the Clock tab of the DWR.  This includes enabling the requested
 284:Generated_Source\PSoC5/cyfitter_cfg.c **** *  clocks and setting the necessary dividers to produce the desired frequency. 
 285:Generated_Source\PSoC5/cyfitter_cfg.c **** *
 286:Generated_Source\PSoC5/cyfitter_cfg.c **** * Parameters:
 287:Generated_Source\PSoC5/cyfitter_cfg.c **** *  void
 288:Generated_Source\PSoC5/cyfitter_cfg.c **** *
 289:Generated_Source\PSoC5/cyfitter_cfg.c **** * Return:
 290:Generated_Source\PSoC5/cyfitter_cfg.c **** *  void
ARM GAS  C:\Users\User\AppData\Local\Temp\ccceaWEK.s 			page 9


 291:Generated_Source\PSoC5/cyfitter_cfg.c **** *
 292:Generated_Source\PSoC5/cyfitter_cfg.c **** *******************************************************************************/
 293:Generated_Source\PSoC5/cyfitter_cfg.c **** static void ClockSetup(void);
 294:Generated_Source\PSoC5/cyfitter_cfg.c **** static void ClockSetup(void)
 295:Generated_Source\PSoC5/cyfitter_cfg.c **** {
 167              		.loc 1 295 0
 168              		.cfi_startproc
 169              		@ args = 0, pretend = 0, frame = 8
 170              		@ frame_needed = 1, uses_anonymous_args = 0
 171 0000 80B5     		push	{r7, lr}
 172              		.cfi_def_cfa_offset 8
 173              		.cfi_offset 7, -8
 174              		.cfi_offset 14, -4
 175 0002 82B0     		sub	sp, sp, #8
 176              		.cfi_def_cfa_offset 16
 177 0004 00AF     		add	r7, sp, #0
 178              		.cfi_def_cfa_register 7
 296:Generated_Source\PSoC5/cyfitter_cfg.c **** 	uint32 timeout;
 297:Generated_Source\PSoC5/cyfitter_cfg.c **** 	uint8 pllLock;
 298:Generated_Source\PSoC5/cyfitter_cfg.c **** 
 299:Generated_Source\PSoC5/cyfitter_cfg.c **** 
 300:Generated_Source\PSoC5/cyfitter_cfg.c **** 	/* Configure Digital Clocks based on settings from Clock DWR */
 301:Generated_Source\PSoC5/cyfitter_cfg.c **** 	CY_SET_XTND_REG16((void CYFAR *)(CYREG_CLKDIST_DCFG0_CFG0), 0x0000u);
 179              		.loc 1 301 0
 180 0006 404B     		ldr	r3, .L11
 181 0008 0022     		movs	r2, #0
 182 000a 1A80     		strh	r2, [r3]	@ movhi
 302:Generated_Source\PSoC5/cyfitter_cfg.c **** 	CY_SET_XTND_REG8((void CYFAR *)(CYREG_CLKDIST_DCFG0_CFG0 + 0x2u), 0x50u);
 183              		.loc 1 302 0
 184 000c 3F4B     		ldr	r3, .L11+4
 185 000e 5022     		movs	r2, #80
 186 0010 1A70     		strb	r2, [r3]
 303:Generated_Source\PSoC5/cyfitter_cfg.c **** 	CY_SET_XTND_REG16((void CYFAR *)(CYREG_CLKDIST_DCFG1_CFG0), 0x5DBFu);
 187              		.loc 1 303 0
 188 0012 3F4B     		ldr	r3, .L11+8
 189 0014 45F6BF52 		movw	r2, #23999
 190 0018 1A80     		strh	r2, [r3]	@ movhi
 304:Generated_Source\PSoC5/cyfitter_cfg.c **** 	CY_SET_XTND_REG8((void CYFAR *)(CYREG_CLKDIST_DCFG1_CFG0 + 0x2u), 0x18u);
 191              		.loc 1 304 0
 192 001a 3E4B     		ldr	r3, .L11+12
 193 001c 1822     		movs	r2, #24
 194 001e 1A70     		strb	r2, [r3]
 305:Generated_Source\PSoC5/cyfitter_cfg.c **** 
 306:Generated_Source\PSoC5/cyfitter_cfg.c **** 	/* Configure Analog Clocks based on settings from Clock DWR */
 307:Generated_Source\PSoC5/cyfitter_cfg.c **** 	CYCONFIGCPY((void CYFAR *)(CYREG_CLKDIST_ACFG0_CFG0), (const void CYFAR *)(BS_CYDEV_CLKDIST_ACFG0_
 195              		.loc 1 307 0
 196 0020 0422     		movs	r2, #4
 197 0022 3D49     		ldr	r1, .L11+16
 198 0024 3D48     		ldr	r0, .L11+20
 199 0026 FFF7FEFF 		bl	CYCONFIGCPY
 308:Generated_Source\PSoC5/cyfitter_cfg.c **** 
 309:Generated_Source\PSoC5/cyfitter_cfg.c **** 	/* Configure ILO based on settings from Clock DWR */
 310:Generated_Source\PSoC5/cyfitter_cfg.c **** 	CY_SET_XTND_REG8((void CYFAR *)(CYREG_SLOWCLK_ILO_CR0), 0x06u);
 200              		.loc 1 310 0
 201 002a 3D4B     		ldr	r3, .L11+24
 202 002c 0622     		movs	r2, #6
 203 002e 1A70     		strb	r2, [r3]
ARM GAS  C:\Users\User\AppData\Local\Temp\ccceaWEK.s 			page 10


 311:Generated_Source\PSoC5/cyfitter_cfg.c **** 
 312:Generated_Source\PSoC5/cyfitter_cfg.c **** 	/* Configure IMO based on settings from Clock DWR */
 313:Generated_Source\PSoC5/cyfitter_cfg.c **** 	CY_SET_XTND_REG8((void CYFAR *)(CYREG_FASTCLK_IMO_CR), 0x52u);
 204              		.loc 1 313 0
 205 0030 3C4B     		ldr	r3, .L11+28
 206 0032 5222     		movs	r2, #82
 207 0034 1A70     		strb	r2, [r3]
 314:Generated_Source\PSoC5/cyfitter_cfg.c **** 	CY_SET_XTND_REG8((void CYFAR *)(CYREG_IMO_TR1), (CY_GET_XTND_REG8((void CYFAR *)CYREG_FLSHID_CUST_
 208              		.loc 1 314 0
 209 0036 3C4B     		ldr	r3, .L11+32
 210 0038 3C4A     		ldr	r2, .L11+36
 211 003a 1278     		ldrb	r2, [r2]
 212 003c D2B2     		uxtb	r2, r2
 213 003e 1A70     		strb	r2, [r3]
 315:Generated_Source\PSoC5/cyfitter_cfg.c **** 
 316:Generated_Source\PSoC5/cyfitter_cfg.c **** 	/* Configure PLL based on settings from Clock DWR */
 317:Generated_Source\PSoC5/cyfitter_cfg.c **** 	CY_SET_XTND_REG16((void CYFAR *)(CYREG_FASTCLK_PLL_P), 0x0708u);
 214              		.loc 1 317 0
 215 0040 3B4B     		ldr	r3, .L11+40
 216 0042 4FF4E162 		mov	r2, #1800
 217 0046 1A80     		strh	r2, [r3]	@ movhi
 318:Generated_Source\PSoC5/cyfitter_cfg.c **** 	CY_SET_XTND_REG16((void CYFAR *)(CYREG_FASTCLK_PLL_CFG0), 0x1251u);
 218              		.loc 1 318 0
 219 0048 3A4B     		ldr	r3, .L11+44
 220 004a 41F25122 		movw	r2, #4689
 221 004e 1A80     		strh	r2, [r3]	@ movhi
 319:Generated_Source\PSoC5/cyfitter_cfg.c **** 	/* Wait up to 250us for the PLL to lock */
 320:Generated_Source\PSoC5/cyfitter_cfg.c **** 	pllLock = 0u;
 222              		.loc 1 320 0
 223 0050 0023     		movs	r3, #0
 224 0052 FB70     		strb	r3, [r7, #3]
 321:Generated_Source\PSoC5/cyfitter_cfg.c **** 	for (timeout = 250u / 10u; (timeout > 0u) && (pllLock != 0x03u); timeout--)
 225              		.loc 1 321 0
 226 0054 1923     		movs	r3, #25
 227 0056 7B60     		str	r3, [r7, #4]
 228 0058 14E0     		b	.L7
 229              	.L9:
 322:Generated_Source\PSoC5/cyfitter_cfg.c **** 	{ 
 323:Generated_Source\PSoC5/cyfitter_cfg.c **** 		pllLock = 0x03u & ((uint8)((uint8)pllLock << 1) | ((CY_GET_XTND_REG8((void CYFAR *)CYREG_FASTCLK_
 230              		.loc 1 323 0 discriminator 4
 231 005a FB78     		ldrb	r3, [r7, #3]
 232 005c 5B00     		lsls	r3, r3, #1
 233 005e DAB2     		uxtb	r2, r3
 234 0060 354B     		ldr	r3, .L11+48
 235 0062 1B78     		ldrb	r3, [r3]
 236 0064 DBB2     		uxtb	r3, r3
 237 0066 03F00103 		and	r3, r3, #1
 238 006a DBB2     		uxtb	r3, r3
 239 006c 1343     		orrs	r3, r3, r2
 240 006e DBB2     		uxtb	r3, r3
 241 0070 03F00303 		and	r3, r3, #3
 242 0074 FB70     		strb	r3, [r7, #3]
 324:Generated_Source\PSoC5/cyfitter_cfg.c **** 		CyDelayCycles(10u * 48u); /* Delay 10us based on 48MHz clock */
 243              		.loc 1 324 0 discriminator 4
 244 0076 4FF4F070 		mov	r0, #480
 245 007a FFF7FEFF 		bl	CyDelayCycles
 321:Generated_Source\PSoC5/cyfitter_cfg.c **** 	for (timeout = 250u / 10u; (timeout > 0u) && (pllLock != 0x03u); timeout--)
ARM GAS  C:\Users\User\AppData\Local\Temp\ccceaWEK.s 			page 11


 246              		.loc 1 321 0 discriminator 4
 247 007e 7B68     		ldr	r3, [r7, #4]
 248 0080 013B     		subs	r3, r3, #1
 249 0082 7B60     		str	r3, [r7, #4]
 250              	.L7:
 321:Generated_Source\PSoC5/cyfitter_cfg.c **** 	for (timeout = 250u / 10u; (timeout > 0u) && (pllLock != 0x03u); timeout--)
 251              		.loc 1 321 0 is_stmt 0 discriminator 1
 252 0084 7B68     		ldr	r3, [r7, #4]
 253 0086 002B     		cmp	r3, #0
 254 0088 02D0     		beq	.L8
 321:Generated_Source\PSoC5/cyfitter_cfg.c **** 	for (timeout = 250u / 10u; (timeout > 0u) && (pllLock != 0x03u); timeout--)
 255              		.loc 1 321 0 discriminator 3
 256 008a FB78     		ldrb	r3, [r7, #3]	@ zero_extendqisi2
 257 008c 032B     		cmp	r3, #3
 258 008e E4D1     		bne	.L9
 259              	.L8:
 325:Generated_Source\PSoC5/cyfitter_cfg.c **** 	}
 326:Generated_Source\PSoC5/cyfitter_cfg.c **** 	/* If we ran out of time the PLL didn't lock so go to the error function */
 327:Generated_Source\PSoC5/cyfitter_cfg.c **** 	if (timeout == 0u)
 260              		.loc 1 327 0 is_stmt 1
 261 0090 7B68     		ldr	r3, [r7, #4]
 262 0092 002B     		cmp	r3, #0
 263 0094 02D1     		bne	.L10
 328:Generated_Source\PSoC5/cyfitter_cfg.c **** 	{
 329:Generated_Source\PSoC5/cyfitter_cfg.c **** 		CyClockStartupError(CYCLOCKSTART_PLL_ERROR);
 264              		.loc 1 329 0
 265 0096 0320     		movs	r0, #3
 266 0098 FFF7FEFF 		bl	CyClockStartupError
 267              	.L10:
 330:Generated_Source\PSoC5/cyfitter_cfg.c **** 	}
 331:Generated_Source\PSoC5/cyfitter_cfg.c **** 
 332:Generated_Source\PSoC5/cyfitter_cfg.c **** 	/* Configure Bus/Master Clock based on settings from Clock DWR */
 333:Generated_Source\PSoC5/cyfitter_cfg.c **** 	CY_SET_XTND_REG16((void CYFAR *)(CYREG_CLKDIST_MSTR0), 0x0100u);
 268              		.loc 1 333 0
 269 009c 274B     		ldr	r3, .L11+52
 270 009e 4FF48072 		mov	r2, #256
 271 00a2 1A80     		strh	r2, [r3]	@ movhi
 334:Generated_Source\PSoC5/cyfitter_cfg.c **** 	CY_SET_XTND_REG8((void CYFAR *)(CYREG_CLKDIST_MSTR0), 0x07u);
 272              		.loc 1 334 0
 273 00a4 254B     		ldr	r3, .L11+52
 274 00a6 0722     		movs	r2, #7
 275 00a8 1A70     		strb	r2, [r3]
 335:Generated_Source\PSoC5/cyfitter_cfg.c **** 	CY_SET_XTND_REG8((void CYFAR *)(CYREG_CLKDIST_BCFG0), 0x00u);
 276              		.loc 1 335 0
 277 00aa 254B     		ldr	r3, .L11+56
 278 00ac 0022     		movs	r2, #0
 279 00ae 1A70     		strb	r2, [r3]
 336:Generated_Source\PSoC5/cyfitter_cfg.c **** 	CY_SET_XTND_REG8((void CYFAR *)(CYREG_CLKDIST_BCFG2), 0x48u);
 280              		.loc 1 336 0
 281 00b0 244B     		ldr	r3, .L11+60
 282 00b2 4822     		movs	r2, #72
 283 00b4 1A70     		strb	r2, [r3]
 337:Generated_Source\PSoC5/cyfitter_cfg.c **** 	CY_SET_XTND_REG8((void CYFAR *)(CYREG_CLKDIST_MSTR0), 0x00u);
 284              		.loc 1 337 0
 285 00b6 214B     		ldr	r3, .L11+52
 286 00b8 0022     		movs	r2, #0
 287 00ba 1A70     		strb	r2, [r3]
ARM GAS  C:\Users\User\AppData\Local\Temp\ccceaWEK.s 			page 12


 338:Generated_Source\PSoC5/cyfitter_cfg.c **** 
 339:Generated_Source\PSoC5/cyfitter_cfg.c **** 	/* Configure USB Clock based on settings from Clock DWR */
 340:Generated_Source\PSoC5/cyfitter_cfg.c **** 	CY_SET_XTND_REG8((void CYFAR *)(CYREG_CLKDIST_UCFG), 0x00u);
 288              		.loc 1 340 0
 289 00bc 224B     		ldr	r3, .L11+64
 290 00be 0022     		movs	r2, #0
 291 00c0 1A70     		strb	r2, [r3]
 341:Generated_Source\PSoC5/cyfitter_cfg.c **** 	CY_SET_XTND_REG8((void CYFAR *)(CYREG_CLKDIST_LD), 0x02u);
 292              		.loc 1 341 0
 293 00c2 224B     		ldr	r3, .L11+68
 294 00c4 0222     		movs	r2, #2
 295 00c6 1A70     		strb	r2, [r3]
 342:Generated_Source\PSoC5/cyfitter_cfg.c **** 	CY_SET_XTND_REG8((void CYFAR *)(CYREG_CLKDIST_DLY1), 0x04u);
 296              		.loc 1 342 0
 297 00c8 214B     		ldr	r3, .L11+72
 298 00ca 0422     		movs	r2, #4
 299 00cc 1A70     		strb	r2, [r3]
 343:Generated_Source\PSoC5/cyfitter_cfg.c **** 
 344:Generated_Source\PSoC5/cyfitter_cfg.c **** 	CY_SET_XTND_REG8((void CYFAR *)(CYREG_PM_ACT_CFG2), ((CY_GET_XTND_REG8((void CYFAR *)CYREG_PM_ACT_
 300              		.loc 1 344 0
 301 00ce 214A     		ldr	r2, .L11+76
 302 00d0 204B     		ldr	r3, .L11+76
 303 00d2 1B78     		ldrb	r3, [r3]
 304 00d4 DBB2     		uxtb	r3, r3
 305 00d6 43F00303 		orr	r3, r3, #3
 306 00da DBB2     		uxtb	r3, r3
 307 00dc 1370     		strb	r3, [r2]
 345:Generated_Source\PSoC5/cyfitter_cfg.c **** 	CY_SET_XTND_REG8((void CYFAR *)(CYREG_PM_ACT_CFG1), ((CY_GET_XTND_REG8((void CYFAR *)CYREG_PM_ACT_
 308              		.loc 1 345 0
 309 00de 1E4A     		ldr	r2, .L11+80
 310 00e0 1D4B     		ldr	r3, .L11+80
 311 00e2 1B78     		ldrb	r3, [r3]
 312 00e4 DBB2     		uxtb	r3, r3
 313 00e6 43F00103 		orr	r3, r3, #1
 314 00ea DBB2     		uxtb	r3, r3
 315 00ec 1370     		strb	r3, [r2]
 346:Generated_Source\PSoC5/cyfitter_cfg.c **** 	CY_SET_XTND_REG8((void CYFAR *)(CYREG_PM_ACT_CFG0), ((CY_GET_XTND_REG8((void CYFAR *)CYREG_PM_ACT_
 316              		.loc 1 346 0
 317 00ee 1B4A     		ldr	r2, .L11+84
 318 00f0 1A4B     		ldr	r3, .L11+84
 319 00f2 1B78     		ldrb	r3, [r3]
 320 00f4 DBB2     		uxtb	r3, r3
 321 00f6 63F07F03 		orn	r3, r3, #127
 322 00fa DBB2     		uxtb	r3, r3
 323 00fc 1370     		strb	r3, [r2]
 347:Generated_Source\PSoC5/cyfitter_cfg.c **** }
 324              		.loc 1 347 0
 325 00fe 00BF     		nop
 326 0100 0837     		adds	r7, r7, #8
 327              		.cfi_def_cfa_offset 8
 328 0102 BD46     		mov	sp, r7
 329              		.cfi_def_cfa_register 13
 330              		@ sp needed
 331 0104 80BD     		pop	{r7, pc}
 332              	.L12:
 333 0106 00BF     		.align	2
 334              	.L11:
ARM GAS  C:\Users\User\AppData\Local\Temp\ccceaWEK.s 			page 13


 335 0108 80400040 		.word	1073758336
 336 010c 82400040 		.word	1073758338
 337 0110 84400040 		.word	1073758340
 338 0114 86400040 		.word	1073758342
 339 0118 DC0F0048 		.word	1207963612
 340 011c 00410040 		.word	1073758464
 341 0120 00430040 		.word	1073758976
 342 0124 00420040 		.word	1073758720
 343 0128 A1460040 		.word	1073759905
 344 012c 0F010049 		.word	1224737039
 345 0130 22420040 		.word	1073758754
 346 0134 20420040 		.word	1073758752
 347 0138 25420040 		.word	1073758757
 348 013c 04400040 		.word	1073758212
 349 0140 06400040 		.word	1073758214
 350 0144 08400040 		.word	1073758216
 351 0148 09400040 		.word	1073758217
 352 014c 01400040 		.word	1073758209
 353 0150 0B400040 		.word	1073758219
 354 0154 A2430040 		.word	1073759138
 355 0158 A1430040 		.word	1073759137
 356 015c A0430040 		.word	1073759136
 357              		.cfi_endproc
 358              	.LFE4:
 359              		.size	ClockSetup, .-ClockSetup
 360              		.section	.text.AnalogSetDefault,"ax",%progbits
 361              		.align	2
 362              		.thumb
 363              		.thumb_func
 364              		.type	AnalogSetDefault, %function
 365              	AnalogSetDefault:
 366              	.LFB5:
 348:Generated_Source\PSoC5/cyfitter_cfg.c **** 
 349:Generated_Source\PSoC5/cyfitter_cfg.c **** 
 350:Generated_Source\PSoC5/cyfitter_cfg.c **** /* Analog API Functions */
 351:Generated_Source\PSoC5/cyfitter_cfg.c **** 
 352:Generated_Source\PSoC5/cyfitter_cfg.c **** 
 353:Generated_Source\PSoC5/cyfitter_cfg.c **** /*******************************************************************************
 354:Generated_Source\PSoC5/cyfitter_cfg.c **** * Function Name: AnalogSetDefault
 355:Generated_Source\PSoC5/cyfitter_cfg.c **** ********************************************************************************
 356:Generated_Source\PSoC5/cyfitter_cfg.c **** *
 357:Generated_Source\PSoC5/cyfitter_cfg.c **** * Summary:
 358:Generated_Source\PSoC5/cyfitter_cfg.c **** *  Sets up the analog portions of the chip to default values based on chip
 359:Generated_Source\PSoC5/cyfitter_cfg.c **** *  configuration options from the project.
 360:Generated_Source\PSoC5/cyfitter_cfg.c **** *
 361:Generated_Source\PSoC5/cyfitter_cfg.c **** * Parameters:
 362:Generated_Source\PSoC5/cyfitter_cfg.c **** *  void
 363:Generated_Source\PSoC5/cyfitter_cfg.c **** *
 364:Generated_Source\PSoC5/cyfitter_cfg.c **** * Return:
 365:Generated_Source\PSoC5/cyfitter_cfg.c **** *  void
 366:Generated_Source\PSoC5/cyfitter_cfg.c **** *
 367:Generated_Source\PSoC5/cyfitter_cfg.c **** *******************************************************************************/
 368:Generated_Source\PSoC5/cyfitter_cfg.c **** static void AnalogSetDefault(void);
 369:Generated_Source\PSoC5/cyfitter_cfg.c **** static void AnalogSetDefault(void)
 370:Generated_Source\PSoC5/cyfitter_cfg.c **** {
 367              		.loc 1 370 0
 368              		.cfi_startproc
ARM GAS  C:\Users\User\AppData\Local\Temp\ccceaWEK.s 			page 14


 369              		@ args = 0, pretend = 0, frame = 8
 370              		@ frame_needed = 1, uses_anonymous_args = 0
 371              		@ link register save eliminated.
 372 0000 80B4     		push	{r7}
 373              		.cfi_def_cfa_offset 4
 374              		.cfi_offset 7, -4
 375 0002 83B0     		sub	sp, sp, #12
 376              		.cfi_def_cfa_offset 16
 377 0004 00AF     		add	r7, sp, #0
 378              		.cfi_def_cfa_register 7
 371:Generated_Source\PSoC5/cyfitter_cfg.c **** 	uint8 bg_xover_inl_trim = CY_GET_XTND_REG8((void CYFAR *)(CYREG_FLSHID_MFG_CFG_BG_XOVER_INL_TRIM +
 379              		.loc 1 371 0
 380 0006 1D4B     		ldr	r3, .L14
 381 0008 1B78     		ldrb	r3, [r3]
 382 000a FB71     		strb	r3, [r7, #7]
 372:Generated_Source\PSoC5/cyfitter_cfg.c **** 	CY_SET_XTND_REG8((void CYFAR *)(CYREG_BG_DFT0), (bg_xover_inl_trim & 0x07u));
 383              		.loc 1 372 0
 384 000c 1C4A     		ldr	r2, .L14+4
 385 000e FB79     		ldrb	r3, [r7, #7]
 386 0010 03F00703 		and	r3, r3, #7
 387 0014 DBB2     		uxtb	r3, r3
 388 0016 1370     		strb	r3, [r2]
 373:Generated_Source\PSoC5/cyfitter_cfg.c **** 	CY_SET_XTND_REG8((void CYFAR *)(CYREG_BG_DFT1), ((bg_xover_inl_trim >> 4) & 0x0Fu));
 389              		.loc 1 373 0
 390 0018 1A4A     		ldr	r2, .L14+8
 391 001a FB79     		ldrb	r3, [r7, #7]	@ zero_extendqisi2
 392 001c 1B09     		lsrs	r3, r3, #4
 393 001e DBB2     		uxtb	r3, r3
 394 0020 1370     		strb	r3, [r2]
 374:Generated_Source\PSoC5/cyfitter_cfg.c **** 	CY_SET_XTND_REG8((void CYFAR *)CYREG_PRT3_AMUX, 0x80u);
 395              		.loc 1 374 0
 396 0022 194B     		ldr	r3, .L14+12
 397 0024 8022     		movs	r2, #128
 398 0026 1A70     		strb	r2, [r3]
 375:Generated_Source\PSoC5/cyfitter_cfg.c **** 	CY_SET_XTND_REG8((void CYFAR *)CYREG_PRT6_AMUX, 0x40u);
 399              		.loc 1 375 0
 400 0028 184B     		ldr	r3, .L14+16
 401 002a 4022     		movs	r2, #64
 402 002c 1A70     		strb	r2, [r3]
 376:Generated_Source\PSoC5/cyfitter_cfg.c **** 	CY_SET_XTND_REG8((void CYFAR *)CYREG_SC3_SW4, 0x20u);
 403              		.loc 1 376 0
 404 002e 184B     		ldr	r3, .L14+20
 405 0030 2022     		movs	r2, #32
 406 0032 1A70     		strb	r2, [r3]
 377:Generated_Source\PSoC5/cyfitter_cfg.c **** 	CY_SET_XTND_REG8((void CYFAR *)CYREG_SC3_SW8, 0x40u);
 407              		.loc 1 377 0
 408 0034 174B     		ldr	r3, .L14+24
 409 0036 4022     		movs	r2, #64
 410 0038 1A70     		strb	r2, [r3]
 378:Generated_Source\PSoC5/cyfitter_cfg.c **** 	CY_SET_XTND_REG8((void CYFAR *)CYREG_DAC1_SW2, 0x08u);
 411              		.loc 1 378 0
 412 003a 174B     		ldr	r3, .L14+28
 413 003c 0822     		movs	r2, #8
 414 003e 1A70     		strb	r2, [r3]
 379:Generated_Source\PSoC5/cyfitter_cfg.c **** 	CY_SET_XTND_REG8((void CYFAR *)CYREG_DAC3_SW0, 0x20u);
 415              		.loc 1 379 0
 416 0040 164B     		ldr	r3, .L14+32
ARM GAS  C:\Users\User\AppData\Local\Temp\ccceaWEK.s 			page 15


 417 0042 2022     		movs	r2, #32
 418 0044 1A70     		strb	r2, [r3]
 380:Generated_Source\PSoC5/cyfitter_cfg.c **** 	CY_SET_XTND_REG8((void CYFAR *)CYREG_CMP2_SW0, 0x81u);
 419              		.loc 1 380 0
 420 0046 164B     		ldr	r3, .L14+36
 421 0048 8122     		movs	r2, #129
 422 004a 1A70     		strb	r2, [r3]
 381:Generated_Source\PSoC5/cyfitter_cfg.c **** 	CY_SET_XTND_REG8((void CYFAR *)CYREG_DSM0_SW0, 0x40u);
 423              		.loc 1 381 0
 424 004c 154B     		ldr	r3, .L14+40
 425 004e 4022     		movs	r2, #64
 426 0050 1A70     		strb	r2, [r3]
 382:Generated_Source\PSoC5/cyfitter_cfg.c **** 	CY_SET_XTND_REG8((void CYFAR *)CYREG_DSM0_SW4, 0x20u);
 427              		.loc 1 382 0
 428 0052 154B     		ldr	r3, .L14+44
 429 0054 2022     		movs	r2, #32
 430 0056 1A70     		strb	r2, [r3]
 383:Generated_Source\PSoC5/cyfitter_cfg.c **** 	CY_SET_XTND_REG8((void CYFAR *)CYREG_OPAMP3_MX, 0x28u);
 431              		.loc 1 383 0
 432 0058 144B     		ldr	r3, .L14+48
 433 005a 2822     		movs	r2, #40
 434 005c 1A70     		strb	r2, [r3]
 384:Generated_Source\PSoC5/cyfitter_cfg.c **** 	CY_SET_XTND_REG8((void CYFAR *)CYREG_BUS_SW0, 0xF0u);
 435              		.loc 1 384 0
 436 005e 144B     		ldr	r3, .L14+52
 437 0060 F022     		movs	r2, #240
 438 0062 1A70     		strb	r2, [r3]
 385:Generated_Source\PSoC5/cyfitter_cfg.c **** 	CY_SET_XTND_REG8((void CYFAR *)CYREG_BUS_SW3, 0x01u);
 439              		.loc 1 385 0
 440 0064 134B     		ldr	r3, .L14+56
 441 0066 0122     		movs	r2, #1
 442 0068 1A70     		strb	r2, [r3]
 386:Generated_Source\PSoC5/cyfitter_cfg.c **** 	CY_SET_XTND_REG8((void CYFAR *)CYREG_PUMP_CR0, 0x44u);
 443              		.loc 1 386 0
 444 006a 134B     		ldr	r3, .L14+60
 445 006c 4422     		movs	r2, #68
 446 006e 1A70     		strb	r2, [r3]
 387:Generated_Source\PSoC5/cyfitter_cfg.c **** }
 447              		.loc 1 387 0
 448 0070 00BF     		nop
 449 0072 0C37     		adds	r7, r7, #12
 450              		.cfi_def_cfa_offset 4
 451 0074 BD46     		mov	sp, r7
 452              		.cfi_def_cfa_register 13
 453              		@ sp needed
 454 0076 80BC     		pop	{r7}
 455              		.cfi_restore 7
 456              		.cfi_def_cfa_offset 0
 457 0078 7047     		bx	lr
 458              	.L15:
 459 007a 00BF     		.align	2
 460              	.L14:
 461 007c CF010049 		.word	1224737231
 462 0080 6E580040 		.word	1073764462
 463 0084 6F580040 		.word	1073764463
 464 0088 3C510040 		.word	1073762620
 465 008c 6C510040 		.word	1073762668
ARM GAS  C:\Users\User\AppData\Local\Temp\ccceaWEK.s 			page 16


 466 0090 345A0040 		.word	1073764916
 467 0094 385A0040 		.word	1073764920
 468 0098 8A5A0040 		.word	1073765002
 469 009c 985A0040 		.word	1073765016
 470 00a0 D05A0040 		.word	1073765072
 471 00a4 005B0040 		.word	1073765120
 472 00a8 045B0040 		.word	1073765124
 473 00ac 465B0040 		.word	1073765190
 474 00b0 585B0040 		.word	1073765208
 475 00b4 5B5B0040 		.word	1073765211
 476 00b8 76580040 		.word	1073764470
 477              		.cfi_endproc
 478              	.LFE5:
 479              		.size	AnalogSetDefault, .-AnalogSetDefault
 480              		.section	.text.SetAnalogRoutingPumps,"ax",%progbits
 481              		.align	2
 482              		.global	SetAnalogRoutingPumps
 483              		.thumb
 484              		.thumb_func
 485              		.type	SetAnalogRoutingPumps, %function
 486              	SetAnalogRoutingPumps:
 487              	.LFB6:
 388:Generated_Source\PSoC5/cyfitter_cfg.c **** 
 389:Generated_Source\PSoC5/cyfitter_cfg.c **** 
 390:Generated_Source\PSoC5/cyfitter_cfg.c **** /*******************************************************************************
 391:Generated_Source\PSoC5/cyfitter_cfg.c **** * Function Name: SetAnalogRoutingPumps
 392:Generated_Source\PSoC5/cyfitter_cfg.c **** ********************************************************************************
 393:Generated_Source\PSoC5/cyfitter_cfg.c **** *
 394:Generated_Source\PSoC5/cyfitter_cfg.c **** * Summary:
 395:Generated_Source\PSoC5/cyfitter_cfg.c **** * Enables or disables the analog pumps feeding analog routing switches.
 396:Generated_Source\PSoC5/cyfitter_cfg.c **** * Intended to be called at startup, based on the Vdda system configuration;
 397:Generated_Source\PSoC5/cyfitter_cfg.c **** * may be called during operation when the user informs us that the Vdda voltage
 398:Generated_Source\PSoC5/cyfitter_cfg.c **** * crossed the pump threshold.
 399:Generated_Source\PSoC5/cyfitter_cfg.c **** *
 400:Generated_Source\PSoC5/cyfitter_cfg.c **** * Parameters:
 401:Generated_Source\PSoC5/cyfitter_cfg.c **** *  enabled - 1 to enable the pumps, 0 to disable the pumps
 402:Generated_Source\PSoC5/cyfitter_cfg.c **** *
 403:Generated_Source\PSoC5/cyfitter_cfg.c **** * Return:
 404:Generated_Source\PSoC5/cyfitter_cfg.c **** *  void
 405:Generated_Source\PSoC5/cyfitter_cfg.c **** *
 406:Generated_Source\PSoC5/cyfitter_cfg.c **** *******************************************************************************/
 407:Generated_Source\PSoC5/cyfitter_cfg.c **** void SetAnalogRoutingPumps(uint8 enabled)
 408:Generated_Source\PSoC5/cyfitter_cfg.c **** {
 488              		.loc 1 408 0
 489              		.cfi_startproc
 490              		@ args = 0, pretend = 0, frame = 16
 491              		@ frame_needed = 1, uses_anonymous_args = 0
 492              		@ link register save eliminated.
 493 0000 80B4     		push	{r7}
 494              		.cfi_def_cfa_offset 4
 495              		.cfi_offset 7, -4
 496 0002 85B0     		sub	sp, sp, #20
 497              		.cfi_def_cfa_offset 24
 498 0004 00AF     		add	r7, sp, #0
 499              		.cfi_def_cfa_register 7
 500 0006 0346     		mov	r3, r0
 501 0008 FB71     		strb	r3, [r7, #7]
ARM GAS  C:\Users\User\AppData\Local\Temp\ccceaWEK.s 			page 17


 409:Generated_Source\PSoC5/cyfitter_cfg.c **** 	uint8 regValue = CY_GET_XTND_REG8((void CYFAR *)CYREG_PUMP_CR0);
 502              		.loc 1 409 0
 503 000a 0B4B     		ldr	r3, .L19
 504 000c 1B78     		ldrb	r3, [r3]
 505 000e FB73     		strb	r3, [r7, #15]
 410:Generated_Source\PSoC5/cyfitter_cfg.c **** 	if (enabled != 0u)
 506              		.loc 1 410 0
 507 0010 FB79     		ldrb	r3, [r7, #7]	@ zero_extendqisi2
 508 0012 002B     		cmp	r3, #0
 509 0014 04D0     		beq	.L17
 411:Generated_Source\PSoC5/cyfitter_cfg.c **** 	{
 412:Generated_Source\PSoC5/cyfitter_cfg.c **** 		regValue |= 0x22u;
 510              		.loc 1 412 0
 511 0016 FB7B     		ldrb	r3, [r7, #15]
 512 0018 43F02203 		orr	r3, r3, #34
 513 001c FB73     		strb	r3, [r7, #15]
 514 001e 03E0     		b	.L18
 515              	.L17:
 413:Generated_Source\PSoC5/cyfitter_cfg.c **** 	}
 414:Generated_Source\PSoC5/cyfitter_cfg.c **** 	else
 415:Generated_Source\PSoC5/cyfitter_cfg.c **** 	{
 416:Generated_Source\PSoC5/cyfitter_cfg.c **** 		regValue &= (uint8)~0x22u;
 516              		.loc 1 416 0
 517 0020 FB7B     		ldrb	r3, [r7, #15]
 518 0022 23F02203 		bic	r3, r3, #34
 519 0026 FB73     		strb	r3, [r7, #15]
 520              	.L18:
 417:Generated_Source\PSoC5/cyfitter_cfg.c **** 	}
 418:Generated_Source\PSoC5/cyfitter_cfg.c **** 	CY_SET_XTND_REG8((void CYFAR *)CYREG_PUMP_CR0, regValue);
 521              		.loc 1 418 0
 522 0028 034A     		ldr	r2, .L19
 523 002a FB7B     		ldrb	r3, [r7, #15]
 524 002c 1370     		strb	r3, [r2]
 419:Generated_Source\PSoC5/cyfitter_cfg.c **** }
 525              		.loc 1 419 0
 526 002e 00BF     		nop
 527 0030 1437     		adds	r7, r7, #20
 528              		.cfi_def_cfa_offset 4
 529 0032 BD46     		mov	sp, r7
 530              		.cfi_def_cfa_register 13
 531              		@ sp needed
 532 0034 80BC     		pop	{r7}
 533              		.cfi_restore 7
 534              		.cfi_def_cfa_offset 0
 535 0036 7047     		bx	lr
 536              	.L20:
 537              		.align	2
 538              	.L19:
 539 0038 76580040 		.word	1073764470
 540              		.cfi_endproc
 541              	.LFE6:
 542              		.size	SetAnalogRoutingPumps, .-SetAnalogRoutingPumps
 543              		.section	.rodata
 544              		.align	2
 545              		.type	AMux_TIA_input__outerAddr, %object
 546              		.size	AMux_TIA_input__outerAddr, 8
 547              	AMux_TIA_input__outerAddr:
ARM GAS  C:\Users\User\AppData\Local\Temp\ccceaWEK.s 			page 18


 548 0000 945A0040 		.word	1073765012
 549 0004 0D510040 		.word	1073762573
 550              		.align	2
 551              		.type	AMux_TIA_input__outerMask, %object
 552              		.size	AMux_TIA_input__outerMask, 2
 553              	AMux_TIA_input__outerMask:
 554 0008 10       		.byte	16
 555 0009 01       		.byte	1
 556 000a 0000     		.align	2
 557              		.type	AMux_TIA_input__innerAddr, %object
 558              		.size	AMux_TIA_input__innerAddr, 4
 559              	AMux_TIA_input__innerAddr:
 560 000c 305A0040 		.word	1073764912
 561              		.align	2
 562              		.type	AMux_TIA_input__innerMask, %object
 563              		.size	AMux_TIA_input__innerMask, 1
 564              	AMux_TIA_input__innerMask:
 565 0010 10       		.byte	16
 566 0011 000000   		.align	2
 567              		.type	AMux_TIA_input__innerMap, %object
 568              		.size	AMux_TIA_input__innerMap, 2
 569              	AMux_TIA_input__innerMap:
 570 0014 0000     		.space	2
 571              		.bss
 572              	AMux_TIA_input__armsEnabled:
 573 0000 00       		.space	1
 574 0001 000000   		.align	2
 575              	AMux_TIA_input__refCnt:
 576 0004 00       		.space	1
 577              		.section	.text.AMux_TIA_input_Set,"ax",%progbits
 578              		.align	2
 579              		.global	AMux_TIA_input_Set
 580              		.thumb
 581              		.thumb_func
 582              		.type	AMux_TIA_input_Set, %function
 583              	AMux_TIA_input_Set:
 584              	.LFB7:
 420:Generated_Source\PSoC5/cyfitter_cfg.c **** 
 421:Generated_Source\PSoC5/cyfitter_cfg.c **** 
 422:Generated_Source\PSoC5/cyfitter_cfg.c **** #define CY_AMUX_UNUSED CYREG_BOOST_SR
 423:Generated_Source\PSoC5/cyfitter_cfg.c **** static uint8 CYXDATA * const CYCODE AMux_TIA_input__outerAddr[2] = {
 424:Generated_Source\PSoC5/cyfitter_cfg.c **** 	(uint8 CYXDATA *)CYREG_DAC2_SW4, 
 425:Generated_Source\PSoC5/cyfitter_cfg.c **** 	(uint8 CYXDATA *)CYREG_PRT0_AG, 
 426:Generated_Source\PSoC5/cyfitter_cfg.c **** };
 427:Generated_Source\PSoC5/cyfitter_cfg.c **** 
 428:Generated_Source\PSoC5/cyfitter_cfg.c **** static const uint8 CYCODE AMux_TIA_input__outerMask[2] = {
 429:Generated_Source\PSoC5/cyfitter_cfg.c **** 	0x10u, 
 430:Generated_Source\PSoC5/cyfitter_cfg.c **** 	0x01u, 
 431:Generated_Source\PSoC5/cyfitter_cfg.c **** };
 432:Generated_Source\PSoC5/cyfitter_cfg.c **** 
 433:Generated_Source\PSoC5/cyfitter_cfg.c **** static uint8 CYXDATA * const CYCODE AMux_TIA_input__innerAddr[1] = {
 434:Generated_Source\PSoC5/cyfitter_cfg.c **** 	(uint8 CYXDATA *)CYREG_SC3_SW0, 
 435:Generated_Source\PSoC5/cyfitter_cfg.c **** };
 436:Generated_Source\PSoC5/cyfitter_cfg.c **** 
 437:Generated_Source\PSoC5/cyfitter_cfg.c **** static const uint8 CYCODE AMux_TIA_input__innerMask[1] = {
 438:Generated_Source\PSoC5/cyfitter_cfg.c **** 	0x10u, 
 439:Generated_Source\PSoC5/cyfitter_cfg.c **** };
ARM GAS  C:\Users\User\AppData\Local\Temp\ccceaWEK.s 			page 19


 440:Generated_Source\PSoC5/cyfitter_cfg.c **** 
 441:Generated_Source\PSoC5/cyfitter_cfg.c **** static const uint8 CYCODE AMux_TIA_input__innerMap[2] = {
 442:Generated_Source\PSoC5/cyfitter_cfg.c **** 	0u, 
 443:Generated_Source\PSoC5/cyfitter_cfg.c **** 	0u, 
 444:Generated_Source\PSoC5/cyfitter_cfg.c **** };
 445:Generated_Source\PSoC5/cyfitter_cfg.c **** 
 446:Generated_Source\PSoC5/cyfitter_cfg.c **** static uint8 AMux_TIA_input__armsEnabled = 0u;
 447:Generated_Source\PSoC5/cyfitter_cfg.c **** static uint8 AMux_TIA_input__refCnt[] = {0u};
 448:Generated_Source\PSoC5/cyfitter_cfg.c **** 
 449:Generated_Source\PSoC5/cyfitter_cfg.c **** /*******************************************************************************
 450:Generated_Source\PSoC5/cyfitter_cfg.c **** * Function Name: AMux_TIA_input_Set
 451:Generated_Source\PSoC5/cyfitter_cfg.c **** ********************************************************************************
 452:Generated_Source\PSoC5/cyfitter_cfg.c **** * Summary:
 453:Generated_Source\PSoC5/cyfitter_cfg.c **** *  This function is used to set a particular channel as active on the AMux.
 454:Generated_Source\PSoC5/cyfitter_cfg.c **** *
 455:Generated_Source\PSoC5/cyfitter_cfg.c **** * Parameters:  
 456:Generated_Source\PSoC5/cyfitter_cfg.c **** *   channel - The mux channel input to set as active
 457:Generated_Source\PSoC5/cyfitter_cfg.c **** *
 458:Generated_Source\PSoC5/cyfitter_cfg.c **** * Return:
 459:Generated_Source\PSoC5/cyfitter_cfg.c **** *   void
 460:Generated_Source\PSoC5/cyfitter_cfg.c **** *
 461:Generated_Source\PSoC5/cyfitter_cfg.c **** *******************************************************************************/
 462:Generated_Source\PSoC5/cyfitter_cfg.c **** void AMux_TIA_input_Set(uint8 channel)
 463:Generated_Source\PSoC5/cyfitter_cfg.c **** {
 585              		.loc 1 463 0
 586              		.cfi_startproc
 587              		@ args = 0, pretend = 0, frame = 16
 588              		@ frame_needed = 1, uses_anonymous_args = 0
 589              		@ link register save eliminated.
 590 0000 80B4     		push	{r7}
 591              		.cfi_def_cfa_offset 4
 592              		.cfi_offset 7, -4
 593 0002 85B0     		sub	sp, sp, #20
 594              		.cfi_def_cfa_offset 24
 595 0004 00AF     		add	r7, sp, #0
 596              		.cfi_def_cfa_register 7
 597 0006 0346     		mov	r3, r0
 598 0008 FB71     		strb	r3, [r7, #7]
 464:Generated_Source\PSoC5/cyfitter_cfg.c **** 	uint8 i;
 465:Generated_Source\PSoC5/cyfitter_cfg.c **** 	uint8 channelMask = (1UL << channel);
 599              		.loc 1 465 0
 600 000a FB79     		ldrb	r3, [r7, #7]	@ zero_extendqisi2
 601 000c 0122     		movs	r2, #1
 602 000e 02FA03F3 		lsl	r3, r2, r3
 603 0012 FB73     		strb	r3, [r7, #15]
 466:Generated_Source\PSoC5/cyfitter_cfg.c **** 	if ((channel < 2u) && ((AMux_TIA_input__armsEnabled & channelMask) == ((uint32)0u)))
 604              		.loc 1 466 0
 605 0014 FB79     		ldrb	r3, [r7, #7]	@ zero_extendqisi2
 606 0016 012B     		cmp	r3, #1
 607 0018 33D8     		bhi	.L24
 608              		.loc 1 466 0 is_stmt 0 discriminator 1
 609 001a 1C4B     		ldr	r3, .L25
 610 001c 1A78     		ldrb	r2, [r3]	@ zero_extendqisi2
 611 001e FB7B     		ldrb	r3, [r7, #15]
 612 0020 1340     		ands	r3, r3, r2
 613 0022 DBB2     		uxtb	r3, r3
 614 0024 002B     		cmp	r3, #0
ARM GAS  C:\Users\User\AppData\Local\Temp\ccceaWEK.s 			page 20


 615 0026 2CD1     		bne	.L24
 467:Generated_Source\PSoC5/cyfitter_cfg.c **** 	{
 468:Generated_Source\PSoC5/cyfitter_cfg.c **** 		AMux_TIA_input__armsEnabled |= channelMask;
 616              		.loc 1 468 0 is_stmt 1
 617 0028 184B     		ldr	r3, .L25
 618 002a 1A78     		ldrb	r2, [r3]	@ zero_extendqisi2
 619 002c FB7B     		ldrb	r3, [r7, #15]
 620 002e 1343     		orrs	r3, r3, r2
 621 0030 DAB2     		uxtb	r2, r3
 622 0032 164B     		ldr	r3, .L25
 623 0034 1A70     		strb	r2, [r3]
 469:Generated_Source\PSoC5/cyfitter_cfg.c **** 		*AMux_TIA_input__outerAddr[channel] |= AMux_TIA_input__outerMask[channel];
 624              		.loc 1 469 0
 625 0036 FB79     		ldrb	r3, [r7, #7]	@ zero_extendqisi2
 626 0038 154A     		ldr	r2, .L25+4
 627 003a 52F82330 		ldr	r3, [r2, r3, lsl #2]
 628 003e FA79     		ldrb	r2, [r7, #7]	@ zero_extendqisi2
 629 0040 1349     		ldr	r1, .L25+4
 630 0042 51F82220 		ldr	r2, [r1, r2, lsl #2]
 631 0046 1178     		ldrb	r1, [r2]	@ zero_extendqisi2
 632 0048 FA79     		ldrb	r2, [r7, #7]	@ zero_extendqisi2
 633 004a 1248     		ldr	r0, .L25+8
 634 004c 825C     		ldrb	r2, [r0, r2]	@ zero_extendqisi2
 635 004e 0A43     		orrs	r2, r2, r1
 636 0050 D2B2     		uxtb	r2, r2
 637 0052 1A70     		strb	r2, [r3]
 470:Generated_Source\PSoC5/cyfitter_cfg.c **** 		i = AMux_TIA_input__innerMap[channel];
 638              		.loc 1 470 0
 639 0054 FB79     		ldrb	r3, [r7, #7]	@ zero_extendqisi2
 640 0056 104A     		ldr	r2, .L25+12
 641 0058 D35C     		ldrb	r3, [r2, r3]
 642 005a BB73     		strb	r3, [r7, #14]
 471:Generated_Source\PSoC5/cyfitter_cfg.c **** 		if (AMux_TIA_input__refCnt[i] == 0u)
 643              		.loc 1 471 0
 644 005c BB7B     		ldrb	r3, [r7, #14]	@ zero_extendqisi2
 645 005e 0F4A     		ldr	r2, .L25+16
 646 0060 D35C     		ldrb	r3, [r2, r3]	@ zero_extendqisi2
 647 0062 002B     		cmp	r3, #0
 648 0064 06D1     		bne	.L23
 472:Generated_Source\PSoC5/cyfitter_cfg.c **** 		{
 473:Generated_Source\PSoC5/cyfitter_cfg.c **** 			*AMux_TIA_input__innerAddr[i] |= AMux_TIA_input__innerMask[i];
 649              		.loc 1 473 0
 650 0066 0E4A     		ldr	r2, .L25+20
 651 0068 0D4B     		ldr	r3, .L25+20
 652 006a 1B78     		ldrb	r3, [r3]	@ zero_extendqisi2
 653 006c 1021     		movs	r1, #16
 654 006e 0B43     		orrs	r3, r3, r1
 655 0070 DBB2     		uxtb	r3, r3
 656 0072 1370     		strb	r3, [r2]
 657              	.L23:
 474:Generated_Source\PSoC5/cyfitter_cfg.c **** 		}
 475:Generated_Source\PSoC5/cyfitter_cfg.c **** 		AMux_TIA_input__refCnt[i]++;
 658              		.loc 1 475 0
 659 0074 BB7B     		ldrb	r3, [r7, #14]	@ zero_extendqisi2
 660 0076 094A     		ldr	r2, .L25+16
 661 0078 D25C     		ldrb	r2, [r2, r3]	@ zero_extendqisi2
 662 007a 0132     		adds	r2, r2, #1
ARM GAS  C:\Users\User\AppData\Local\Temp\ccceaWEK.s 			page 21


 663 007c D1B2     		uxtb	r1, r2
 664 007e 074A     		ldr	r2, .L25+16
 665 0080 D154     		strb	r1, [r2, r3]
 666              	.L24:
 476:Generated_Source\PSoC5/cyfitter_cfg.c **** 	}
 477:Generated_Source\PSoC5/cyfitter_cfg.c **** }
 667              		.loc 1 477 0
 668 0082 00BF     		nop
 669 0084 1437     		adds	r7, r7, #20
 670              		.cfi_def_cfa_offset 4
 671 0086 BD46     		mov	sp, r7
 672              		.cfi_def_cfa_register 13
 673              		@ sp needed
 674 0088 80BC     		pop	{r7}
 675              		.cfi_restore 7
 676              		.cfi_def_cfa_offset 0
 677 008a 7047     		bx	lr
 678              	.L26:
 679              		.align	2
 680              	.L25:
 681 008c 00000000 		.word	AMux_TIA_input__armsEnabled
 682 0090 00000000 		.word	AMux_TIA_input__outerAddr
 683 0094 08000000 		.word	AMux_TIA_input__outerMask
 684 0098 14000000 		.word	AMux_TIA_input__innerMap
 685 009c 04000000 		.word	AMux_TIA_input__refCnt
 686 00a0 305A0040 		.word	1073764912
 687              		.cfi_endproc
 688              	.LFE7:
 689              		.size	AMux_TIA_input_Set, .-AMux_TIA_input_Set
 690              		.section	.text.AMux_TIA_input_Unset,"ax",%progbits
 691              		.align	2
 692              		.global	AMux_TIA_input_Unset
 693              		.thumb
 694              		.thumb_func
 695              		.type	AMux_TIA_input_Unset, %function
 696              	AMux_TIA_input_Unset:
 697              	.LFB8:
 478:Generated_Source\PSoC5/cyfitter_cfg.c **** 
 479:Generated_Source\PSoC5/cyfitter_cfg.c **** /*******************************************************************************
 480:Generated_Source\PSoC5/cyfitter_cfg.c **** * Function Name: AMux_TIA_input_Unset
 481:Generated_Source\PSoC5/cyfitter_cfg.c **** ********************************************************************************
 482:Generated_Source\PSoC5/cyfitter_cfg.c **** * Summary:
 483:Generated_Source\PSoC5/cyfitter_cfg.c **** *  This function is used to clear a particular channel from being active on the
 484:Generated_Source\PSoC5/cyfitter_cfg.c **** *  AMux.
 485:Generated_Source\PSoC5/cyfitter_cfg.c **** *
 486:Generated_Source\PSoC5/cyfitter_cfg.c **** * Parameters:  
 487:Generated_Source\PSoC5/cyfitter_cfg.c **** *   channel - The mux channel input to mark inactive
 488:Generated_Source\PSoC5/cyfitter_cfg.c **** *
 489:Generated_Source\PSoC5/cyfitter_cfg.c **** * Return:
 490:Generated_Source\PSoC5/cyfitter_cfg.c **** *   void
 491:Generated_Source\PSoC5/cyfitter_cfg.c **** *
 492:Generated_Source\PSoC5/cyfitter_cfg.c **** *******************************************************************************/
 493:Generated_Source\PSoC5/cyfitter_cfg.c **** void AMux_TIA_input_Unset(uint8 channel)
 494:Generated_Source\PSoC5/cyfitter_cfg.c **** {
 698              		.loc 1 494 0
 699              		.cfi_startproc
 700              		@ args = 0, pretend = 0, frame = 16
ARM GAS  C:\Users\User\AppData\Local\Temp\ccceaWEK.s 			page 22


 701              		@ frame_needed = 1, uses_anonymous_args = 0
 702              		@ link register save eliminated.
 703 0000 80B4     		push	{r7}
 704              		.cfi_def_cfa_offset 4
 705              		.cfi_offset 7, -4
 706 0002 85B0     		sub	sp, sp, #20
 707              		.cfi_def_cfa_offset 24
 708 0004 00AF     		add	r7, sp, #0
 709              		.cfi_def_cfa_register 7
 710 0006 0346     		mov	r3, r0
 711 0008 FB71     		strb	r3, [r7, #7]
 495:Generated_Source\PSoC5/cyfitter_cfg.c **** 	uint8 i;
 496:Generated_Source\PSoC5/cyfitter_cfg.c **** 	uint8 channelMask = (1UL << channel);
 712              		.loc 1 496 0
 713 000a FB79     		ldrb	r3, [r7, #7]	@ zero_extendqisi2
 714 000c 0122     		movs	r2, #1
 715 000e 02FA03F3 		lsl	r3, r2, r3
 716 0012 FB73     		strb	r3, [r7, #15]
 497:Generated_Source\PSoC5/cyfitter_cfg.c **** 	if ((channel < 2u) && ((AMux_TIA_input__armsEnabled & channelMask) != ((uint32)0u)))
 717              		.loc 1 497 0
 718 0014 FB79     		ldrb	r3, [r7, #7]	@ zero_extendqisi2
 719 0016 012B     		cmp	r3, #1
 720 0018 39D8     		bhi	.L29
 721              		.loc 1 497 0 is_stmt 0 discriminator 1
 722 001a 1F4B     		ldr	r3, .L30
 723 001c 1A78     		ldrb	r2, [r3]	@ zero_extendqisi2
 724 001e FB7B     		ldrb	r3, [r7, #15]
 725 0020 1340     		ands	r3, r3, r2
 726 0022 DBB2     		uxtb	r3, r3
 727 0024 002B     		cmp	r3, #0
 728 0026 32D0     		beq	.L29
 498:Generated_Source\PSoC5/cyfitter_cfg.c **** 	{
 499:Generated_Source\PSoC5/cyfitter_cfg.c **** 		AMux_TIA_input__armsEnabled &= (uint8)~channelMask;
 729              		.loc 1 499 0 is_stmt 1
 730 0028 FB7B     		ldrb	r3, [r7, #15]
 731 002a DB43     		mvns	r3, r3
 732 002c DAB2     		uxtb	r2, r3
 733 002e 1A4B     		ldr	r3, .L30
 734 0030 1B78     		ldrb	r3, [r3]	@ zero_extendqisi2
 735 0032 1340     		ands	r3, r3, r2
 736 0034 DAB2     		uxtb	r2, r3
 737 0036 184B     		ldr	r3, .L30
 738 0038 1A70     		strb	r2, [r3]
 500:Generated_Source\PSoC5/cyfitter_cfg.c **** 		*AMux_TIA_input__outerAddr[channel] &= (uint8)~AMux_TIA_input__outerMask[channel];
 739              		.loc 1 500 0
 740 003a FB79     		ldrb	r3, [r7, #7]	@ zero_extendqisi2
 741 003c 174A     		ldr	r2, .L30+4
 742 003e 52F82330 		ldr	r3, [r2, r3, lsl #2]
 743 0042 FA79     		ldrb	r2, [r7, #7]	@ zero_extendqisi2
 744 0044 1549     		ldr	r1, .L30+4
 745 0046 51F82220 		ldr	r2, [r1, r2, lsl #2]
 746 004a 1178     		ldrb	r1, [r2]	@ zero_extendqisi2
 747 004c FA79     		ldrb	r2, [r7, #7]	@ zero_extendqisi2
 748 004e 1448     		ldr	r0, .L30+8
 749 0050 825C     		ldrb	r2, [r0, r2]	@ zero_extendqisi2
 750 0052 D243     		mvns	r2, r2
 751 0054 D2B2     		uxtb	r2, r2
ARM GAS  C:\Users\User\AppData\Local\Temp\ccceaWEK.s 			page 23


 752 0056 0A40     		ands	r2, r2, r1
 753 0058 D2B2     		uxtb	r2, r2
 754 005a 1A70     		strb	r2, [r3]
 501:Generated_Source\PSoC5/cyfitter_cfg.c **** 		i = AMux_TIA_input__innerMap[channel];
 755              		.loc 1 501 0
 756 005c FB79     		ldrb	r3, [r7, #7]	@ zero_extendqisi2
 757 005e 114A     		ldr	r2, .L30+12
 758 0060 D35C     		ldrb	r3, [r2, r3]
 759 0062 BB73     		strb	r3, [r7, #14]
 502:Generated_Source\PSoC5/cyfitter_cfg.c **** 		AMux_TIA_input__refCnt[i]--;
 760              		.loc 1 502 0
 761 0064 BB7B     		ldrb	r3, [r7, #14]	@ zero_extendqisi2
 762 0066 104A     		ldr	r2, .L30+16
 763 0068 D25C     		ldrb	r2, [r2, r3]	@ zero_extendqisi2
 764 006a 013A     		subs	r2, r2, #1
 765 006c D1B2     		uxtb	r1, r2
 766 006e 0E4A     		ldr	r2, .L30+16
 767 0070 D154     		strb	r1, [r2, r3]
 503:Generated_Source\PSoC5/cyfitter_cfg.c **** 		if (AMux_TIA_input__refCnt[i] == 0)
 768              		.loc 1 503 0
 769 0072 BB7B     		ldrb	r3, [r7, #14]	@ zero_extendqisi2
 770 0074 0C4A     		ldr	r2, .L30+16
 771 0076 D35C     		ldrb	r3, [r2, r3]	@ zero_extendqisi2
 772 0078 002B     		cmp	r3, #0
 773 007a 08D1     		bne	.L29
 504:Generated_Source\PSoC5/cyfitter_cfg.c **** 		{
 505:Generated_Source\PSoC5/cyfitter_cfg.c **** 			*AMux_TIA_input__innerAddr[i] &= (uint8)~AMux_TIA_input__innerMask[i];
 774              		.loc 1 505 0
 775 007c 0B49     		ldr	r1, .L30+20
 776 007e 0B4B     		ldr	r3, .L30+20
 777 0080 1A78     		ldrb	r2, [r3]	@ zero_extendqisi2
 778 0082 1023     		movs	r3, #16
 779 0084 DB43     		mvns	r3, r3
 780 0086 DBB2     		uxtb	r3, r3
 781 0088 1340     		ands	r3, r3, r2
 782 008a DBB2     		uxtb	r3, r3
 783 008c 0B70     		strb	r3, [r1]
 784              	.L29:
 506:Generated_Source\PSoC5/cyfitter_cfg.c **** 		}
 507:Generated_Source\PSoC5/cyfitter_cfg.c **** 	}
 508:Generated_Source\PSoC5/cyfitter_cfg.c **** }
 785              		.loc 1 508 0
 786 008e 00BF     		nop
 787 0090 1437     		adds	r7, r7, #20
 788              		.cfi_def_cfa_offset 4
 789 0092 BD46     		mov	sp, r7
 790              		.cfi_def_cfa_register 13
 791              		@ sp needed
 792 0094 80BC     		pop	{r7}
 793              		.cfi_restore 7
 794              		.cfi_def_cfa_offset 0
 795 0096 7047     		bx	lr
 796              	.L31:
 797              		.align	2
 798              	.L30:
 799 0098 00000000 		.word	AMux_TIA_input__armsEnabled
 800 009c 00000000 		.word	AMux_TIA_input__outerAddr
ARM GAS  C:\Users\User\AppData\Local\Temp\ccceaWEK.s 			page 24


 801 00a0 08000000 		.word	AMux_TIA_input__outerMask
 802 00a4 14000000 		.word	AMux_TIA_input__innerMap
 803 00a8 04000000 		.word	AMux_TIA_input__refCnt
 804 00ac 305A0040 		.word	1073764912
 805              		.cfi_endproc
 806              	.LFE8:
 807              		.size	AMux_TIA_input_Unset, .-AMux_TIA_input_Unset
 808              		.global	AMux_electrode__addrTable
 809              		.section	.rodata
 810 0016 0000     		.align	2
 811              		.type	AMux_electrode__addrTable, %object
 812              		.size	AMux_electrode__addrTable, 8
 813              	AMux_electrode__addrTable:
 814 0018 3D510040 		.word	1073762621
 815 001c 6D510040 		.word	1073762669
 816              		.global	AMux_electrode__maskTable
 817              		.align	2
 818              		.type	AMux_electrode__maskTable, %object
 819              		.size	AMux_electrode__maskTable, 2
 820              	AMux_electrode__maskTable:
 821 0020 80       		.byte	-128
 822 0021 01       		.byte	1
 823              		.section	.text.AMux_electrode_Set,"ax",%progbits
 824              		.align	2
 825              		.global	AMux_electrode_Set
 826              		.thumb
 827              		.thumb_func
 828              		.type	AMux_electrode_Set, %function
 829              	AMux_electrode_Set:
 830              	.LFB9:
 509:Generated_Source\PSoC5/cyfitter_cfg.c **** 
 510:Generated_Source\PSoC5/cyfitter_cfg.c **** /* This is an implementation detail of the AMux. Code that depends on it may be
 511:Generated_Source\PSoC5/cyfitter_cfg.c ****    incompatible with other versions of PSoC Creator. */
 512:Generated_Source\PSoC5/cyfitter_cfg.c **** uint8 CYXDATA * const CYCODE AMux_electrode__addrTable[2] = {
 513:Generated_Source\PSoC5/cyfitter_cfg.c **** 	(uint8 CYXDATA *)CYREG_PRT3_AG, 
 514:Generated_Source\PSoC5/cyfitter_cfg.c **** 	(uint8 CYXDATA *)CYREG_PRT6_AG, 
 515:Generated_Source\PSoC5/cyfitter_cfg.c **** };
 516:Generated_Source\PSoC5/cyfitter_cfg.c **** 
 517:Generated_Source\PSoC5/cyfitter_cfg.c **** /* This is an implementation detail of the AMux. Code that depends on it may be
 518:Generated_Source\PSoC5/cyfitter_cfg.c ****    incompatible with other versions of PSoC Creator. */
 519:Generated_Source\PSoC5/cyfitter_cfg.c **** const uint8 CYCODE AMux_electrode__maskTable[2] = {
 520:Generated_Source\PSoC5/cyfitter_cfg.c **** 	0x80u, 
 521:Generated_Source\PSoC5/cyfitter_cfg.c **** 	0x01u, 
 522:Generated_Source\PSoC5/cyfitter_cfg.c **** };
 523:Generated_Source\PSoC5/cyfitter_cfg.c **** 
 524:Generated_Source\PSoC5/cyfitter_cfg.c **** /*******************************************************************************
 525:Generated_Source\PSoC5/cyfitter_cfg.c **** * Function Name: AMux_electrode_Set
 526:Generated_Source\PSoC5/cyfitter_cfg.c **** ********************************************************************************
 527:Generated_Source\PSoC5/cyfitter_cfg.c **** * Summary:
 528:Generated_Source\PSoC5/cyfitter_cfg.c **** *  This function is used to set a particular channel as active on the AMux.
 529:Generated_Source\PSoC5/cyfitter_cfg.c **** *
 530:Generated_Source\PSoC5/cyfitter_cfg.c **** * Parameters:  
 531:Generated_Source\PSoC5/cyfitter_cfg.c **** *   channel - The mux channel input to set as active
 532:Generated_Source\PSoC5/cyfitter_cfg.c **** *
 533:Generated_Source\PSoC5/cyfitter_cfg.c **** * Return:
 534:Generated_Source\PSoC5/cyfitter_cfg.c **** *   void
 535:Generated_Source\PSoC5/cyfitter_cfg.c **** *
ARM GAS  C:\Users\User\AppData\Local\Temp\ccceaWEK.s 			page 25


 536:Generated_Source\PSoC5/cyfitter_cfg.c **** *******************************************************************************/
 537:Generated_Source\PSoC5/cyfitter_cfg.c **** void AMux_electrode_Set(uint8 channel)
 538:Generated_Source\PSoC5/cyfitter_cfg.c **** {
 831              		.loc 1 538 0
 832              		.cfi_startproc
 833              		@ args = 0, pretend = 0, frame = 8
 834              		@ frame_needed = 1, uses_anonymous_args = 0
 835              		@ link register save eliminated.
 836 0000 80B4     		push	{r7}
 837              		.cfi_def_cfa_offset 4
 838              		.cfi_offset 7, -4
 839 0002 83B0     		sub	sp, sp, #12
 840              		.cfi_def_cfa_offset 16
 841 0004 00AF     		add	r7, sp, #0
 842              		.cfi_def_cfa_register 7
 843 0006 0346     		mov	r3, r0
 844 0008 FB71     		strb	r3, [r7, #7]
 539:Generated_Source\PSoC5/cyfitter_cfg.c **** 	if (channel < 2)
 845              		.loc 1 539 0
 846 000a FB79     		ldrb	r3, [r7, #7]	@ zero_extendqisi2
 847 000c 012B     		cmp	r3, #1
 848 000e 0ED8     		bhi	.L34
 540:Generated_Source\PSoC5/cyfitter_cfg.c **** 	{
 541:Generated_Source\PSoC5/cyfitter_cfg.c **** 		*AMux_electrode__addrTable[channel] |= AMux_electrode__maskTable[channel];
 849              		.loc 1 541 0
 850 0010 FB79     		ldrb	r3, [r7, #7]	@ zero_extendqisi2
 851 0012 094A     		ldr	r2, .L35
 852 0014 52F82330 		ldr	r3, [r2, r3, lsl #2]
 853 0018 FA79     		ldrb	r2, [r7, #7]	@ zero_extendqisi2
 854 001a 0749     		ldr	r1, .L35
 855 001c 51F82220 		ldr	r2, [r1, r2, lsl #2]
 856 0020 1178     		ldrb	r1, [r2]	@ zero_extendqisi2
 857 0022 FA79     		ldrb	r2, [r7, #7]	@ zero_extendqisi2
 858 0024 0548     		ldr	r0, .L35+4
 859 0026 825C     		ldrb	r2, [r0, r2]	@ zero_extendqisi2
 860 0028 0A43     		orrs	r2, r2, r1
 861 002a D2B2     		uxtb	r2, r2
 862 002c 1A70     		strb	r2, [r3]
 863              	.L34:
 542:Generated_Source\PSoC5/cyfitter_cfg.c **** 	}
 543:Generated_Source\PSoC5/cyfitter_cfg.c **** }
 864              		.loc 1 543 0
 865 002e 00BF     		nop
 866 0030 0C37     		adds	r7, r7, #12
 867              		.cfi_def_cfa_offset 4
 868 0032 BD46     		mov	sp, r7
 869              		.cfi_def_cfa_register 13
 870              		@ sp needed
 871 0034 80BC     		pop	{r7}
 872              		.cfi_restore 7
 873              		.cfi_def_cfa_offset 0
 874 0036 7047     		bx	lr
 875              	.L36:
 876              		.align	2
 877              	.L35:
 878 0038 00000000 		.word	AMux_electrode__addrTable
 879 003c 00000000 		.word	AMux_electrode__maskTable
ARM GAS  C:\Users\User\AppData\Local\Temp\ccceaWEK.s 			page 26


 880              		.cfi_endproc
 881              	.LFE9:
 882              		.size	AMux_electrode_Set, .-AMux_electrode_Set
 883              		.section	.text.AMux_electrode_Unset,"ax",%progbits
 884              		.align	2
 885              		.global	AMux_electrode_Unset
 886              		.thumb
 887              		.thumb_func
 888              		.type	AMux_electrode_Unset, %function
 889              	AMux_electrode_Unset:
 890              	.LFB10:
 544:Generated_Source\PSoC5/cyfitter_cfg.c **** 
 545:Generated_Source\PSoC5/cyfitter_cfg.c **** /*******************************************************************************
 546:Generated_Source\PSoC5/cyfitter_cfg.c **** * Function Name: AMux_electrode_Unset
 547:Generated_Source\PSoC5/cyfitter_cfg.c **** ********************************************************************************
 548:Generated_Source\PSoC5/cyfitter_cfg.c **** * Summary:
 549:Generated_Source\PSoC5/cyfitter_cfg.c **** *  This function is used to clear a particular channel from being active on the
 550:Generated_Source\PSoC5/cyfitter_cfg.c **** *  AMux.
 551:Generated_Source\PSoC5/cyfitter_cfg.c **** *
 552:Generated_Source\PSoC5/cyfitter_cfg.c **** * Parameters:  
 553:Generated_Source\PSoC5/cyfitter_cfg.c **** *   channel - The mux channel input to mark inactive
 554:Generated_Source\PSoC5/cyfitter_cfg.c **** *
 555:Generated_Source\PSoC5/cyfitter_cfg.c **** * Return:
 556:Generated_Source\PSoC5/cyfitter_cfg.c **** *   void
 557:Generated_Source\PSoC5/cyfitter_cfg.c **** *
 558:Generated_Source\PSoC5/cyfitter_cfg.c **** *******************************************************************************/
 559:Generated_Source\PSoC5/cyfitter_cfg.c **** void AMux_electrode_Unset(uint8 channel)
 560:Generated_Source\PSoC5/cyfitter_cfg.c **** {
 891              		.loc 1 560 0
 892              		.cfi_startproc
 893              		@ args = 0, pretend = 0, frame = 8
 894              		@ frame_needed = 1, uses_anonymous_args = 0
 895              		@ link register save eliminated.
 896 0000 80B4     		push	{r7}
 897              		.cfi_def_cfa_offset 4
 898              		.cfi_offset 7, -4
 899 0002 83B0     		sub	sp, sp, #12
 900              		.cfi_def_cfa_offset 16
 901 0004 00AF     		add	r7, sp, #0
 902              		.cfi_def_cfa_register 7
 903 0006 0346     		mov	r3, r0
 904 0008 FB71     		strb	r3, [r7, #7]
 561:Generated_Source\PSoC5/cyfitter_cfg.c **** 	if (channel < 2)
 905              		.loc 1 561 0
 906 000a FB79     		ldrb	r3, [r7, #7]	@ zero_extendqisi2
 907 000c 012B     		cmp	r3, #1
 908 000e 10D8     		bhi	.L39
 562:Generated_Source\PSoC5/cyfitter_cfg.c **** 	{
 563:Generated_Source\PSoC5/cyfitter_cfg.c **** 		*AMux_electrode__addrTable[channel] &= (uint8)~AMux_electrode__maskTable[channel];
 909              		.loc 1 563 0
 910 0010 FB79     		ldrb	r3, [r7, #7]	@ zero_extendqisi2
 911 0012 0A4A     		ldr	r2, .L40
 912 0014 52F82330 		ldr	r3, [r2, r3, lsl #2]
 913 0018 FA79     		ldrb	r2, [r7, #7]	@ zero_extendqisi2
 914 001a 0849     		ldr	r1, .L40
 915 001c 51F82220 		ldr	r2, [r1, r2, lsl #2]
 916 0020 1178     		ldrb	r1, [r2]	@ zero_extendqisi2
ARM GAS  C:\Users\User\AppData\Local\Temp\ccceaWEK.s 			page 27


 917 0022 FA79     		ldrb	r2, [r7, #7]	@ zero_extendqisi2
 918 0024 0648     		ldr	r0, .L40+4
 919 0026 825C     		ldrb	r2, [r0, r2]	@ zero_extendqisi2
 920 0028 D243     		mvns	r2, r2
 921 002a D2B2     		uxtb	r2, r2
 922 002c 0A40     		ands	r2, r2, r1
 923 002e D2B2     		uxtb	r2, r2
 924 0030 1A70     		strb	r2, [r3]
 925              	.L39:
 564:Generated_Source\PSoC5/cyfitter_cfg.c **** 	}
 565:Generated_Source\PSoC5/cyfitter_cfg.c **** }
 926              		.loc 1 565 0
 927 0032 00BF     		nop
 928 0034 0C37     		adds	r7, r7, #12
 929              		.cfi_def_cfa_offset 4
 930 0036 BD46     		mov	sp, r7
 931              		.cfi_def_cfa_register 13
 932              		@ sp needed
 933 0038 80BC     		pop	{r7}
 934              		.cfi_restore 7
 935              		.cfi_def_cfa_offset 0
 936 003a 7047     		bx	lr
 937              	.L41:
 938              		.align	2
 939              	.L40:
 940 003c 00000000 		.word	AMux_electrode__addrTable
 941 0040 00000000 		.word	AMux_electrode__maskTable
 942              		.cfi_endproc
 943              	.LFE10:
 944              		.size	AMux_electrode_Unset, .-AMux_electrode_Unset
 945              		.section	.text.cyfitter_cfg,"ax",%progbits
 946              		.align	2
 947              		.global	cyfitter_cfg
 948              		.thumb
 949              		.thumb_func
 950              		.type	cyfitter_cfg, %function
 951              	cyfitter_cfg:
 952              	.LFB11:
 566:Generated_Source\PSoC5/cyfitter_cfg.c **** 
 567:Generated_Source\PSoC5/cyfitter_cfg.c **** 
 568:Generated_Source\PSoC5/cyfitter_cfg.c **** 
 569:Generated_Source\PSoC5/cyfitter_cfg.c **** /*******************************************************************************
 570:Generated_Source\PSoC5/cyfitter_cfg.c **** * Function Name: cyfitter_cfg
 571:Generated_Source\PSoC5/cyfitter_cfg.c **** ********************************************************************************
 572:Generated_Source\PSoC5/cyfitter_cfg.c **** * Summary:
 573:Generated_Source\PSoC5/cyfitter_cfg.c **** *  This function is called by the start-up code for the selected device. It
 574:Generated_Source\PSoC5/cyfitter_cfg.c **** *  performs all of the necessary device configuration based on the design
 575:Generated_Source\PSoC5/cyfitter_cfg.c **** *  settings.  This includes settings from the Design Wide Resources (DWR) such
 576:Generated_Source\PSoC5/cyfitter_cfg.c **** *  as Clocks and Pins as well as any component configuration that is necessary.
 577:Generated_Source\PSoC5/cyfitter_cfg.c **** *
 578:Generated_Source\PSoC5/cyfitter_cfg.c **** * Parameters:
 579:Generated_Source\PSoC5/cyfitter_cfg.c **** *   void
 580:Generated_Source\PSoC5/cyfitter_cfg.c **** *
 581:Generated_Source\PSoC5/cyfitter_cfg.c **** * Return:
 582:Generated_Source\PSoC5/cyfitter_cfg.c **** *   void
 583:Generated_Source\PSoC5/cyfitter_cfg.c **** *
 584:Generated_Source\PSoC5/cyfitter_cfg.c **** *******************************************************************************/
ARM GAS  C:\Users\User\AppData\Local\Temp\ccceaWEK.s 			page 28


 585:Generated_Source\PSoC5/cyfitter_cfg.c **** 
 586:Generated_Source\PSoC5/cyfitter_cfg.c **** void cyfitter_cfg(void)
 587:Generated_Source\PSoC5/cyfitter_cfg.c **** {
 953              		.loc 1 587 0
 954              		.cfi_startproc
 955              		@ args = 0, pretend = 0, frame = 24
 956              		@ frame_needed = 1, uses_anonymous_args = 0
 957 0000 80B5     		push	{r7, lr}
 958              		.cfi_def_cfa_offset 8
 959              		.cfi_offset 7, -8
 960              		.cfi_offset 14, -4
 961 0002 86B0     		sub	sp, sp, #24
 962              		.cfi_def_cfa_offset 32
 963 0004 00AF     		add	r7, sp, #0
 964              		.cfi_def_cfa_register 7
 588:Generated_Source\PSoC5/cyfitter_cfg.c **** #ifdef CYGlobalIntDisable
 589:Generated_Source\PSoC5/cyfitter_cfg.c **** 	/* Disable interrupts by default. Let user enable if/when they want. */
 590:Generated_Source\PSoC5/cyfitter_cfg.c **** 	CYGlobalIntDisable
 965              		.loc 1 590 0
 966              		.syntax unified
 967              	@ 590 "Generated_Source\PSoC5\cyfitter_cfg.c" 1
 968 0006 72B6     		CPSID   i
 969              	@ 0 "" 2
 591:Generated_Source\PSoC5/cyfitter_cfg.c **** #endif
 592:Generated_Source\PSoC5/cyfitter_cfg.c **** 
 593:Generated_Source\PSoC5/cyfitter_cfg.c **** 	/* Enable/Disable Debug functionality based on settings from System DWR */
 594:Generated_Source\PSoC5/cyfitter_cfg.c **** 	CY_SET_XTND_REG8((void CYFAR *)CYREG_MLOGIC_DEBUG, (CY_GET_XTND_REG8((void CYFAR *)CYREG_MLOGIC_DE
 970              		.loc 1 594 0
 971              		.thumb
 972              		.syntax unified
 973 0008 4D4A     		ldr	r2, .L47
 974 000a 4D4B     		ldr	r3, .L47
 975 000c 1B78     		ldrb	r3, [r3]
 976 000e DBB2     		uxtb	r3, r3
 977 0010 43F00403 		orr	r3, r3, #4
 978 0014 DBB2     		uxtb	r3, r3
 979 0016 1370     		strb	r3, [r2]
 980              	.LBB2:
 595:Generated_Source\PSoC5/cyfitter_cfg.c **** 
 596:Generated_Source\PSoC5/cyfitter_cfg.c **** 	{
 597:Generated_Source\PSoC5/cyfitter_cfg.c **** 
 598:Generated_Source\PSoC5/cyfitter_cfg.c **** 		CYPACKED typedef struct {
 599:Generated_Source\PSoC5/cyfitter_cfg.c **** 			void CYFAR *address;
 600:Generated_Source\PSoC5/cyfitter_cfg.c **** 			uint16 size;
 601:Generated_Source\PSoC5/cyfitter_cfg.c **** 		} CYPACKED_ATTR cfg_memset_t;
 602:Generated_Source\PSoC5/cyfitter_cfg.c **** 
 603:Generated_Source\PSoC5/cyfitter_cfg.c **** 
 604:Generated_Source\PSoC5/cyfitter_cfg.c **** 		CYPACKED typedef struct {
 605:Generated_Source\PSoC5/cyfitter_cfg.c **** 			void CYFAR *dest;
 606:Generated_Source\PSoC5/cyfitter_cfg.c **** 			const void CYFAR *src;
 607:Generated_Source\PSoC5/cyfitter_cfg.c **** 			uint16 size;
 608:Generated_Source\PSoC5/cyfitter_cfg.c **** 		} CYPACKED_ATTR cfg_memcpy_t;
 609:Generated_Source\PSoC5/cyfitter_cfg.c **** 
 610:Generated_Source\PSoC5/cyfitter_cfg.c **** 		static const cfg_memset_t CYCODE cfg_memset_list[] = {
 611:Generated_Source\PSoC5/cyfitter_cfg.c **** 			/* address, size */
 612:Generated_Source\PSoC5/cyfitter_cfg.c **** 			{(void CYFAR *)(CYREG_PRT4_DR), 32u},
 613:Generated_Source\PSoC5/cyfitter_cfg.c **** 			{(void CYFAR *)(CYREG_PRT12_DR), 16u},
ARM GAS  C:\Users\User\AppData\Local\Temp\ccceaWEK.s 			page 29


 614:Generated_Source\PSoC5/cyfitter_cfg.c **** 			{(void CYFAR *)(CYDEV_UCFG_B0_P0_U0_BASE), 896u},
 615:Generated_Source\PSoC5/cyfitter_cfg.c **** 			{(void CYFAR *)(CYDEV_UCFG_B0_P2_U0_BASE), 2048u},
 616:Generated_Source\PSoC5/cyfitter_cfg.c **** 			{(void CYFAR *)(CYDEV_UCFG_B1_P2_U0_BASE), 384u},
 617:Generated_Source\PSoC5/cyfitter_cfg.c **** 			{(void CYFAR *)(CYDEV_UCFG_B1_P3_U0_BASE), 384u},
 618:Generated_Source\PSoC5/cyfitter_cfg.c **** 			{(void CYFAR *)(CYDEV_UCFG_B1_P4_U0_BASE), 384u},
 619:Generated_Source\PSoC5/cyfitter_cfg.c **** 			{(void CYFAR *)(CYDEV_UCFG_B1_P5_U0_BASE), 384u},
 620:Generated_Source\PSoC5/cyfitter_cfg.c **** 			{(void CYFAR *)(CYDEV_UCFG_DSI1_BASE), 128u},
 621:Generated_Source\PSoC5/cyfitter_cfg.c **** 			{(void CYFAR *)(CYDEV_UCFG_DSI2_BASE), 128u},
 622:Generated_Source\PSoC5/cyfitter_cfg.c **** 			{(void CYFAR *)(CYDEV_UCFG_DSI5_BASE), 128u},
 623:Generated_Source\PSoC5/cyfitter_cfg.c **** 			{(void CYFAR *)(CYDEV_UCFG_DSI9_BASE), 128u},
 624:Generated_Source\PSoC5/cyfitter_cfg.c **** 			{(void CYFAR *)(CYDEV_UCFG_DSI12_BASE), 128u},
 625:Generated_Source\PSoC5/cyfitter_cfg.c **** 			{(void CYFAR *)(CYDEV_UCFG_DSI13_BASE), 128u},
 626:Generated_Source\PSoC5/cyfitter_cfg.c **** 			{(void CYFAR *)(CYREG_BCTL1_MDCLK_EN), 16u},
 627:Generated_Source\PSoC5/cyfitter_cfg.c **** 		};
 628:Generated_Source\PSoC5/cyfitter_cfg.c **** 
 629:Generated_Source\PSoC5/cyfitter_cfg.c **** 		static const cfg_memcpy_t CYCODE cfg_memcpy_list [] = {
 630:Generated_Source\PSoC5/cyfitter_cfg.c **** 			/* dest, src, size */
 631:Generated_Source\PSoC5/cyfitter_cfg.c **** 			{(void CYFAR *)(CYDEV_PRTDSI_PRT6_BASE), BS_IOPORT_6_VAL, 7u},
 632:Generated_Source\PSoC5/cyfitter_cfg.c **** 			{(void CYFAR *)(CYDEV_PRTDSI_PRT15_BASE), BS_IOPORT_8_VAL, 7u},
 633:Generated_Source\PSoC5/cyfitter_cfg.c **** 			{(void CYFAR *)(CYDEV_PICU_INTTYPE_PICU15_BASE), BS_PICU_8_VAL, 8u},
 634:Generated_Source\PSoC5/cyfitter_cfg.c **** 			{(void CYFAR *)(CYREG_IDMUX_IRQ_CTL0), BS_IDMUX_IRQ_VAL, 8u},
 635:Generated_Source\PSoC5/cyfitter_cfg.c **** 			{(void CYFAR *)(CYDEV_UCFG_B0_P6_U0_BASE), BS_UDB_0_4_1_CONFIG_VAL, 128u},
 636:Generated_Source\PSoC5/cyfitter_cfg.c **** 			{(void CYFAR *)(CYDEV_UCFG_B0_P6_U1_BASE), BS_UDB_0_4_0_CONFIG_VAL, 128u},
 637:Generated_Source\PSoC5/cyfitter_cfg.c **** 			{(void CYFAR *)(CYDEV_UCFG_B0_P7_U0_BASE), BS_UDB_0_5_0_CONFIG_VAL, 128u},
 638:Generated_Source\PSoC5/cyfitter_cfg.c **** 			{(void CYFAR *)(CYDEV_UCFG_B0_P7_U1_BASE), BS_UDB_0_5_1_CONFIG_VAL, 128u},
 639:Generated_Source\PSoC5/cyfitter_cfg.c **** 			{(void CYFAR *)(CYREG_BCTL0_MDCLK_EN), BS_UCFG_BCTL0_VAL, 16u},
 640:Generated_Source\PSoC5/cyfitter_cfg.c **** 			{(void CYFAR *)(CYDEV_UCFG_DSI13_BASE + 0x00000080u), BS_DSI0_0_HV_ROUTING_VAL, 128u},
 641:Generated_Source\PSoC5/cyfitter_cfg.c **** 			{(void CYFAR *)(CYDEV_UCFG_DSI12_BASE + 0x00000080u), BS_DSI0_1_HV_ROUTING_VAL, 128u},
 642:Generated_Source\PSoC5/cyfitter_cfg.c **** 			{(void CYFAR *)(CYDEV_UCFG_DSI7_BASE), BS_DSISWITCH_0_2_VAL, 128u},
 643:Generated_Source\PSoC5/cyfitter_cfg.c **** 			{(void CYFAR *)(CYDEV_UCFG_DSI7_BASE + 0x00000080u), BS_DSI0_2_HV_ROUTING_VAL, 128u},
 644:Generated_Source\PSoC5/cyfitter_cfg.c **** 			{(void CYFAR *)(CYDEV_UCFG_DSI6_BASE), BS_DSISWITCH_0_3_VAL, 128u},
 645:Generated_Source\PSoC5/cyfitter_cfg.c **** 			{(void CYFAR *)(CYDEV_UCFG_DSI6_BASE + 0x00000080u), BS_DSI0_3_HV_ROUTING_VAL, 128u},
 646:Generated_Source\PSoC5/cyfitter_cfg.c **** 			{(void CYFAR *)(CYDEV_UCFG_DSI5_BASE + 0x00000080u), BS_DSI0_4_HV_ROUTING_VAL, 128u},
 647:Generated_Source\PSoC5/cyfitter_cfg.c **** 			{(void CYFAR *)(CYDEV_UCFG_DSI4_BASE), BS_DSISWITCH_0_5_VAL, 128u},
 648:Generated_Source\PSoC5/cyfitter_cfg.c **** 			{(void CYFAR *)(CYDEV_UCFG_DSI4_BASE + 0x00000080u), BS_DSI0_5_HV_ROUTING_VAL, 128u},
 649:Generated_Source\PSoC5/cyfitter_cfg.c **** 			{(void CYFAR *)(CYDEV_UCFG_B1_P5_ROUTE_BASE + 0x00000080u), BS_UDB_1_0_HV_ROUTING_VAL, 128u},
 650:Generated_Source\PSoC5/cyfitter_cfg.c **** 			{(void CYFAR *)(CYDEV_UCFG_B1_P2_ROUTE_BASE + 0x00000080u), BS_UDB_2_0_HV_ROUTING_VAL, 128u},
 651:Generated_Source\PSoC5/cyfitter_cfg.c **** 			{(void CYFAR *)(CYDEV_UCFG_B1_P4_ROUTE_BASE + 0x00000080u), BS_UDB_1_1_HV_ROUTING_VAL, 128u},
 652:Generated_Source\PSoC5/cyfitter_cfg.c **** 			{(void CYFAR *)(CYDEV_UCFG_B1_P3_ROUTE_BASE + 0x00000080u), BS_UDB_2_1_HV_ROUTING_VAL, 128u},
 653:Generated_Source\PSoC5/cyfitter_cfg.c **** 			{(void CYFAR *)(CYDEV_UCFG_B0_P6_ROUTE_BASE), BS_UDBSWITCH_0_4_VAL, 128u},
 654:Generated_Source\PSoC5/cyfitter_cfg.c **** 			{(void CYFAR *)(CYDEV_UCFG_B0_P6_ROUTE_BASE + 0x00000080u), BS_UDB_1_4_HV_ROUTING_VAL, 128u},
 655:Generated_Source\PSoC5/cyfitter_cfg.c **** 			{(void CYFAR *)(CYDEV_UCFG_B0_P1_ROUTE_BASE + 0x00000080u), BS_UDB_2_4_HV_ROUTING_VAL, 128u},
 656:Generated_Source\PSoC5/cyfitter_cfg.c **** 			{(void CYFAR *)(CYDEV_UCFG_B0_P7_ROUTE_BASE), BS_UDBSWITCH_0_5_VAL, 128u},
 657:Generated_Source\PSoC5/cyfitter_cfg.c **** 			{(void CYFAR *)(CYDEV_UCFG_B0_P7_ROUTE_BASE + 0x00000080u), BS_UDB_1_5_HV_ROUTING_VAL, 128u},
 658:Generated_Source\PSoC5/cyfitter_cfg.c **** 			{(void CYFAR *)(CYDEV_UCFG_DSI9_BASE + 0x00000080u), BS_DSI3_0_HV_ROUTING_VAL, 128u},
 659:Generated_Source\PSoC5/cyfitter_cfg.c **** 			{(void CYFAR *)(CYDEV_UCFG_DSI8_BASE), BS_DSISWITCH_1_1_VAL, 128u},
 660:Generated_Source\PSoC5/cyfitter_cfg.c **** 			{(void CYFAR *)(CYDEV_UCFG_DSI8_BASE + 0x00000080u), BS_DSI3_1_HV_ROUTING_VAL, 128u},
 661:Generated_Source\PSoC5/cyfitter_cfg.c **** 			{(void CYFAR *)(CYDEV_UCFG_DSI3_BASE), BS_DSISWITCH_1_2_VAL, 128u},
 662:Generated_Source\PSoC5/cyfitter_cfg.c **** 			{(void CYFAR *)(CYDEV_UCFG_DSI3_BASE + 0x00000080u), BS_DSI3_2_HV_ROUTING_VAL, 128u},
 663:Generated_Source\PSoC5/cyfitter_cfg.c **** 			{(void CYFAR *)(CYDEV_UCFG_DSI2_BASE + 0x00000080u), BS_DSI3_3_HV_ROUTING_VAL, 128u},
 664:Generated_Source\PSoC5/cyfitter_cfg.c **** 			{(void CYFAR *)(CYDEV_UCFG_DSI1_BASE + 0x00000080u), BS_DSI3_4_HV_ROUTING_VAL, 128u},
 665:Generated_Source\PSoC5/cyfitter_cfg.c **** 			{(void CYFAR *)(CYDEV_UCFG_DSI0_BASE), BS_DSISWITCH_1_5_VAL, 128u},
 666:Generated_Source\PSoC5/cyfitter_cfg.c **** 			{(void CYFAR *)(CYDEV_UCFG_DSI0_BASE + 0x00000080u), BS_DSI3_5_HV_ROUTING_VAL, 128u},
 667:Generated_Source\PSoC5/cyfitter_cfg.c **** 		};
 668:Generated_Source\PSoC5/cyfitter_cfg.c **** 
 669:Generated_Source\PSoC5/cyfitter_cfg.c **** 		uint8 CYDATA i;
 670:Generated_Source\PSoC5/cyfitter_cfg.c **** 
ARM GAS  C:\Users\User\AppData\Local\Temp\ccceaWEK.s 			page 30


 671:Generated_Source\PSoC5/cyfitter_cfg.c **** 		/* Zero out critical memory blocks before beginning configuration */
 672:Generated_Source\PSoC5/cyfitter_cfg.c **** 		for (i = 0u; i < (sizeof(cfg_memset_list)/sizeof(cfg_memset_list[0])); i++)
 981              		.loc 1 672 0
 982 0018 0023     		movs	r3, #0
 983 001a FB75     		strb	r3, [r7, #23]
 984 001c 13E0     		b	.L43
 985              	.L44:
 986              	.LBB3:
 673:Generated_Source\PSoC5/cyfitter_cfg.c **** 		{
 674:Generated_Source\PSoC5/cyfitter_cfg.c **** 			const cfg_memset_t CYCODE * CYDATA ms = &cfg_memset_list[i];
 987              		.loc 1 674 0 discriminator 3
 988 001e FA7D     		ldrb	r2, [r7, #23]	@ zero_extendqisi2
 989 0020 1346     		mov	r3, r2
 990 0022 5B00     		lsls	r3, r3, #1
 991 0024 1344     		add	r3, r3, r2
 992 0026 5B00     		lsls	r3, r3, #1
 993 0028 464A     		ldr	r2, .L47+4
 994 002a 1344     		add	r3, r3, r2
 995 002c 3B61     		str	r3, [r7, #16]
 675:Generated_Source\PSoC5/cyfitter_cfg.c **** 			CYMEMZERO(ms->address, (size_t)(uint32)(ms->size));
 996              		.loc 1 675 0 discriminator 3
 997 002e 3B69     		ldr	r3, [r7, #16]
 998 0030 1A68     		ldr	r2, [r3]	@ unaligned
 999 0032 3B69     		ldr	r3, [r7, #16]
 1000 0034 9B88     		ldrh	r3, [r3, #4]	@ unaligned
 1001 0036 9BB2     		uxth	r3, r3
 1002 0038 1946     		mov	r1, r3
 1003 003a 1046     		mov	r0, r2
 1004 003c FFF7FEFF 		bl	CYMEMZERO
 1005              	.LBE3:
 672:Generated_Source\PSoC5/cyfitter_cfg.c **** 		{
 1006              		.loc 1 672 0 discriminator 3
 1007 0040 FB7D     		ldrb	r3, [r7, #23]	@ zero_extendqisi2
 1008 0042 0133     		adds	r3, r3, #1
 1009 0044 FB75     		strb	r3, [r7, #23]
 1010              	.L43:
 672:Generated_Source\PSoC5/cyfitter_cfg.c **** 		{
 1011              		.loc 1 672 0 is_stmt 0 discriminator 1
 1012 0046 FB7D     		ldrb	r3, [r7, #23]	@ zero_extendqisi2
 1013 0048 0E2B     		cmp	r3, #14
 1014 004a E8D9     		bls	.L44
 676:Generated_Source\PSoC5/cyfitter_cfg.c **** 		}
 677:Generated_Source\PSoC5/cyfitter_cfg.c **** 
 678:Generated_Source\PSoC5/cyfitter_cfg.c **** 		/* Copy device configuration data into registers */
 679:Generated_Source\PSoC5/cyfitter_cfg.c **** 		for (i = 0u; i < (sizeof(cfg_memcpy_list)/sizeof(cfg_memcpy_list[0])); i++)
 1015              		.loc 1 679 0 is_stmt 1
 1016 004c 0023     		movs	r3, #0
 1017 004e FB75     		strb	r3, [r7, #23]
 1018 0050 1CE0     		b	.L45
 1019              	.L46:
 1020              	.LBB4:
 680:Generated_Source\PSoC5/cyfitter_cfg.c **** 		{
 681:Generated_Source\PSoC5/cyfitter_cfg.c **** 			const cfg_memcpy_t CYCODE * CYDATA mc = &cfg_memcpy_list[i];
 1021              		.loc 1 681 0 discriminator 3
 1022 0052 FA7D     		ldrb	r2, [r7, #23]	@ zero_extendqisi2
 1023 0054 1346     		mov	r3, r2
 1024 0056 9B00     		lsls	r3, r3, #2
ARM GAS  C:\Users\User\AppData\Local\Temp\ccceaWEK.s 			page 31


 1025 0058 1344     		add	r3, r3, r2
 1026 005a 5B00     		lsls	r3, r3, #1
 1027 005c 3A4A     		ldr	r2, .L47+8
 1028 005e 1344     		add	r3, r3, r2
 1029 0060 FB60     		str	r3, [r7, #12]
 682:Generated_Source\PSoC5/cyfitter_cfg.c **** 			void * CYDATA destPtr = mc->dest;
 1030              		.loc 1 682 0 discriminator 3
 1031 0062 FB68     		ldr	r3, [r7, #12]
 1032 0064 1B68     		ldr	r3, [r3]	@ unaligned
 1033 0066 BB60     		str	r3, [r7, #8]
 683:Generated_Source\PSoC5/cyfitter_cfg.c **** 			const void * CYDATA srcPtr = mc->src;
 1034              		.loc 1 683 0 discriminator 3
 1035 0068 FB68     		ldr	r3, [r7, #12]
 1036 006a 5B68     		ldr	r3, [r3, #4]	@ unaligned
 1037 006c 7B60     		str	r3, [r7, #4]
 684:Generated_Source\PSoC5/cyfitter_cfg.c **** 			uint16 CYDATA numBytes = mc->size;
 1038              		.loc 1 684 0 discriminator 3
 1039 006e FB68     		ldr	r3, [r7, #12]
 1040 0070 1A7A     		ldrb	r2, [r3, #8]	@ zero_extendqisi2
 1041 0072 5B7A     		ldrb	r3, [r3, #9]	@ zero_extendqisi2
 1042 0074 1B02     		lsls	r3, r3, #8
 1043 0076 1343     		orrs	r3, r3, r2
 1044 0078 7B80     		strh	r3, [r7, #2]	@ movhi
 685:Generated_Source\PSoC5/cyfitter_cfg.c **** 			CYCONFIGCPY(destPtr, srcPtr, numBytes);
 1045              		.loc 1 685 0 discriminator 3
 1046 007a 7B88     		ldrh	r3, [r7, #2]
 1047 007c 1A46     		mov	r2, r3
 1048 007e 7968     		ldr	r1, [r7, #4]
 1049 0080 B868     		ldr	r0, [r7, #8]
 1050 0082 FFF7FEFF 		bl	CYCONFIGCPY
 1051              	.LBE4:
 679:Generated_Source\PSoC5/cyfitter_cfg.c **** 		{
 1052              		.loc 1 679 0 discriminator 3
 1053 0086 FB7D     		ldrb	r3, [r7, #23]	@ zero_extendqisi2
 1054 0088 0133     		adds	r3, r3, #1
 1055 008a FB75     		strb	r3, [r7, #23]
 1056              	.L45:
 679:Generated_Source\PSoC5/cyfitter_cfg.c **** 		{
 1057              		.loc 1 679 0 is_stmt 0 discriminator 1
 1058 008c FB7D     		ldrb	r3, [r7, #23]	@ zero_extendqisi2
 1059 008e 232B     		cmp	r3, #35
 1060 0090 DFD9     		bls	.L46
 686:Generated_Source\PSoC5/cyfitter_cfg.c **** 		}
 687:Generated_Source\PSoC5/cyfitter_cfg.c **** 
 688:Generated_Source\PSoC5/cyfitter_cfg.c **** 		/* Perform normal device configuration. Order is not critical for these items. */
 689:Generated_Source\PSoC5/cyfitter_cfg.c **** 		CY_SET_XTND_REG8((void CYFAR *)(CYREG_DSM0_CR3), 0x0Au);
 1061              		.loc 1 689 0 is_stmt 1
 1062 0092 2E4B     		ldr	r3, .L47+12
 1063 0094 0A22     		movs	r2, #10
 1064 0096 1A70     		strb	r2, [r3]
 690:Generated_Source\PSoC5/cyfitter_cfg.c **** 
 691:Generated_Source\PSoC5/cyfitter_cfg.c **** 		/* Enable digital routing */
 692:Generated_Source\PSoC5/cyfitter_cfg.c **** 		CY_SET_XTND_REG8((void CYFAR *)CYREG_BCTL0_BANK_CTL, CY_GET_XTND_REG8((void CYFAR *)CYREG_BCTL0_B
 1065              		.loc 1 692 0
 1066 0098 2D4A     		ldr	r2, .L47+16
 1067 009a 2D4B     		ldr	r3, .L47+16
 1068 009c 1B78     		ldrb	r3, [r3]
ARM GAS  C:\Users\User\AppData\Local\Temp\ccceaWEK.s 			page 32


 1069 009e DBB2     		uxtb	r3, r3
 1070 00a0 43F00203 		orr	r3, r3, #2
 1071 00a4 DBB2     		uxtb	r3, r3
 1072 00a6 1370     		strb	r3, [r2]
 693:Generated_Source\PSoC5/cyfitter_cfg.c **** 		CY_SET_XTND_REG8((void CYFAR *)CYREG_BCTL1_BANK_CTL, CY_GET_XTND_REG8((void CYFAR *)CYREG_BCTL1_B
 1073              		.loc 1 693 0
 1074 00a8 2A4A     		ldr	r2, .L47+20
 1075 00aa 2A4B     		ldr	r3, .L47+20
 1076 00ac 1B78     		ldrb	r3, [r3]
 1077 00ae DBB2     		uxtb	r3, r3
 1078 00b0 43F00203 		orr	r3, r3, #2
 1079 00b4 DBB2     		uxtb	r3, r3
 1080 00b6 1370     		strb	r3, [r2]
 694:Generated_Source\PSoC5/cyfitter_cfg.c **** 
 695:Generated_Source\PSoC5/cyfitter_cfg.c **** 		/* Enable UDB array */
 696:Generated_Source\PSoC5/cyfitter_cfg.c **** 		CY_SET_XTND_REG8((void CYFAR *)CYREG_PM_ACT_CFG0, CY_GET_XTND_REG8((void CYFAR *)CYREG_PM_ACT_CFG
 1081              		.loc 1 696 0
 1082 00b8 274A     		ldr	r2, .L47+24
 1083 00ba 274B     		ldr	r3, .L47+24
 1084 00bc 1B78     		ldrb	r3, [r3]
 1085 00be DBB2     		uxtb	r3, r3
 1086 00c0 43F04003 		orr	r3, r3, #64
 1087 00c4 DBB2     		uxtb	r3, r3
 1088 00c6 1370     		strb	r3, [r2]
 697:Generated_Source\PSoC5/cyfitter_cfg.c **** 		CY_SET_XTND_REG8((void CYFAR *)CYREG_PM_AVAIL_CR2, CY_GET_XTND_REG8((void CYFAR *)CYREG_PM_AVAIL_
 1089              		.loc 1 697 0
 1090 00c8 244A     		ldr	r2, .L47+28
 1091 00ca 244B     		ldr	r3, .L47+28
 1092 00cc 1B78     		ldrb	r3, [r3]
 1093 00ce DBB2     		uxtb	r3, r3
 1094 00d0 43F01003 		orr	r3, r3, #16
 1095 00d4 DBB2     		uxtb	r3, r3
 1096 00d6 1370     		strb	r3, [r2]
 1097              	.LBE2:
 698:Generated_Source\PSoC5/cyfitter_cfg.c **** 	}
 699:Generated_Source\PSoC5/cyfitter_cfg.c **** 
 700:Generated_Source\PSoC5/cyfitter_cfg.c **** 
 701:Generated_Source\PSoC5/cyfitter_cfg.c **** 	/* Perform second pass device configuration. These items must be configured in specific order afte
 702:Generated_Source\PSoC5/cyfitter_cfg.c **** 	CYCONFIGCPY((void CYFAR *)(CYREG_PRT0_DM0), (const void CYFAR *)(BS_IOPINS0_0_VAL), 8u);
 1098              		.loc 1 702 0
 1099 00d8 0822     		movs	r2, #8
 1100 00da 2149     		ldr	r1, .L47+32
 1101 00dc 2148     		ldr	r0, .L47+36
 1102 00de FFF7FEFF 		bl	CYCONFIGCPY
 703:Generated_Source\PSoC5/cyfitter_cfg.c **** 	CYCONFIGCPY((void CYFAR *)(CYREG_PRT15_DR), (const void CYFAR *)(BS_IOPINS0_8_VAL), 10u);
 1103              		.loc 1 703 0
 1104 00e2 0A22     		movs	r2, #10
 1105 00e4 2049     		ldr	r1, .L47+40
 1106 00e6 2148     		ldr	r0, .L47+44
 1107 00e8 FFF7FEFF 		bl	CYCONFIGCPY
 704:Generated_Source\PSoC5/cyfitter_cfg.c **** 	CYCONFIGCPY((void CYFAR *)(CYREG_PRT1_DM0), (const void CYFAR *)(BS_IOPINS0_1_VAL), 8u);
 1108              		.loc 1 704 0
 1109 00ec 0822     		movs	r2, #8
 1110 00ee 2049     		ldr	r1, .L47+48
 1111 00f0 2048     		ldr	r0, .L47+52
 1112 00f2 FFF7FEFF 		bl	CYCONFIGCPY
 705:Generated_Source\PSoC5/cyfitter_cfg.c **** 	CYCONFIGCPY((void CYFAR *)(CYREG_PRT2_DM0), (const void CYFAR *)(BS_IOPINS0_2_VAL), 8u);
ARM GAS  C:\Users\User\AppData\Local\Temp\ccceaWEK.s 			page 33


 1113              		.loc 1 705 0
 1114 00f6 0822     		movs	r2, #8
 1115 00f8 1F49     		ldr	r1, .L47+56
 1116 00fa 2048     		ldr	r0, .L47+60
 1117 00fc FFF7FEFF 		bl	CYCONFIGCPY
 706:Generated_Source\PSoC5/cyfitter_cfg.c **** 	CYCONFIGCPY((void CYFAR *)(CYREG_PRT6_DM0), (const void CYFAR *)(BS_IOPINS0_6_VAL), 8u);
 1118              		.loc 1 706 0
 1119 0100 0822     		movs	r2, #8
 1120 0102 1F49     		ldr	r1, .L47+64
 1121 0104 1F48     		ldr	r0, .L47+68
 1122 0106 FFF7FEFF 		bl	CYCONFIGCPY
 707:Generated_Source\PSoC5/cyfitter_cfg.c **** 	/* Switch Boost to the precision bandgap reference from its internal reference */
 708:Generated_Source\PSoC5/cyfitter_cfg.c **** 	CY_SET_REG8((void CYXDATA *)CYREG_BOOST_CR2, (CY_GET_REG8((void CYXDATA *)CYREG_BOOST_CR2) | 0x08u
 1123              		.loc 1 708 0
 1124 010a 1F4A     		ldr	r2, .L47+72
 1125 010c 1E4B     		ldr	r3, .L47+72
 1126 010e 1B78     		ldrb	r3, [r3]
 1127 0110 DBB2     		uxtb	r3, r3
 1128 0112 43F00803 		orr	r3, r3, #8
 1129 0116 DBB2     		uxtb	r3, r3
 1130 0118 1370     		strb	r3, [r2]
 709:Generated_Source\PSoC5/cyfitter_cfg.c **** 
 710:Generated_Source\PSoC5/cyfitter_cfg.c **** 	/* Set Flash Cycles based on max possible frequency in case a glitch occurs during ClockSetup(). *
 711:Generated_Source\PSoC5/cyfitter_cfg.c **** 	CY_SET_XTND_REG8((void CYFAR *)(CYREG_CACHE_CC_CTL), (((CYDEV_INSTRUCT_CACHE_ENABLED) != 0) ? 0x61
 1131              		.loc 1 711 0
 1132 011a 1C4B     		ldr	r3, .L47+76
 1133 011c 6122     		movs	r2, #97
 1134 011e 1A70     		strb	r2, [r3]
 712:Generated_Source\PSoC5/cyfitter_cfg.c **** 	/* Setup clocks based on selections from Clock DWR */
 713:Generated_Source\PSoC5/cyfitter_cfg.c **** 	ClockSetup();
 1135              		.loc 1 713 0
 1136 0120 FFF7FEFF 		bl	ClockSetup
 714:Generated_Source\PSoC5/cyfitter_cfg.c **** 	/* Set Flash Cycles based on newly configured 24.00MHz Bus Clock. */
 715:Generated_Source\PSoC5/cyfitter_cfg.c **** 	CY_SET_XTND_REG8((void CYFAR *)(CYREG_CACHE_CC_CTL), (((CYDEV_INSTRUCT_CACHE_ENABLED) != 0) ? 0x81
 1137              		.loc 1 715 0
 1138 0124 194B     		ldr	r3, .L47+76
 1139 0126 8122     		movs	r2, #129
 1140 0128 1A70     		strb	r2, [r3]
 716:Generated_Source\PSoC5/cyfitter_cfg.c **** 
 717:Generated_Source\PSoC5/cyfitter_cfg.c **** 	/* Perform basic analog initialization to defaults */
 718:Generated_Source\PSoC5/cyfitter_cfg.c **** 	AnalogSetDefault();
 1141              		.loc 1 718 0
 1142 012a FFF7FEFF 		bl	AnalogSetDefault
 719:Generated_Source\PSoC5/cyfitter_cfg.c **** 
 720:Generated_Source\PSoC5/cyfitter_cfg.c **** 	/* Configure alternate active mode */
 721:Generated_Source\PSoC5/cyfitter_cfg.c **** 	CYCONFIGCPY((void CYFAR *)CYDEV_PM_STBY_BASE, (const void CYFAR *)CYDEV_PM_ACT_BASE, 14u);
 1143              		.loc 1 721 0
 1144 012e 0E22     		movs	r2, #14
 1145 0130 0949     		ldr	r1, .L47+24
 1146 0132 1748     		ldr	r0, .L47+80
 1147 0134 FFF7FEFF 		bl	CYCONFIGCPY
 722:Generated_Source\PSoC5/cyfitter_cfg.c **** }
 1148              		.loc 1 722 0
 1149 0138 00BF     		nop
 1150 013a 1837     		adds	r7, r7, #24
 1151              		.cfi_def_cfa_offset 8
 1152 013c BD46     		mov	sp, r7
ARM GAS  C:\Users\User\AppData\Local\Temp\ccceaWEK.s 			page 34


 1153              		.cfi_def_cfa_register 13
 1154              		@ sp needed
 1155 013e 80BD     		pop	{r7, pc}
 1156              	.L48:
 1157              		.align	2
 1158              	.L47:
 1159 0140 E8460040 		.word	1073759976
 1160 0144 24000000 		.word	cfg_memset_list.5028
 1161 0148 80000000 		.word	cfg_memcpy_list.5029
 1162 014c 83580040 		.word	1073764483
 1163 0150 03500140 		.word	1073827843
 1164 0154 13500140 		.word	1073827859
 1165 0158 A0430040 		.word	1073759136
 1166 015c C2430040 		.word	1073759170
 1167 0160 B00F0048 		.word	1207963568
 1168 0164 02510040 		.word	1073762562
 1169 0168 B80F0048 		.word	1207963576
 1170 016c F0510040 		.word	1073762800
 1171 0170 C40F0048 		.word	1207963588
 1172 0174 12510040 		.word	1073762578
 1173 0178 CC0F0048 		.word	1207963596
 1174 017c 22510040 		.word	1073762594
 1175 0180 D40F0048 		.word	1207963604
 1176 0184 62510040 		.word	1073762658
 1177 0188 22430040 		.word	1073759010
 1178 018c 00480040 		.word	1073760256
 1179 0190 B0430040 		.word	1073759152
 1180              		.cfi_endproc
 1181              	.LFE11:
 1182              		.size	cyfitter_cfg, .-cyfitter_cfg
 1183              		.section	.rodata
 1184 0022 0000     		.align	2
 1185              		.type	cfg_memset_list.5028, %object
 1186              		.size	cfg_memset_list.5028, 90
 1187              	cfg_memset_list.5028:
 1188 0024 40510040 		.word	1073762624
 1189 0028 2000     		.short	32
 1190 002a C0510040 		.4byte	1073762752
 1191 002e 1000     		.short	16
 1192 0030 00000140 		.word	1073807360
 1193 0034 8003     		.short	896
 1194 0036 00040140 		.4byte	1073808384
 1195 003a 0008     		.short	2048
 1196 003c 00140140 		.word	1073812480
 1197 0040 8001     		.short	384
 1198 0042 00160140 		.4byte	1073812992
 1199 0046 8001     		.short	384
 1200 0048 00180140 		.word	1073813504
 1201 004c 8001     		.short	384
 1202 004e 001A0140 		.4byte	1073814016
 1203 0052 8001     		.short	384
 1204 0054 00410140 		.word	1073824000
 1205 0058 8000     		.short	128
 1206 005a 00420140 		.4byte	1073824256
 1207 005e 8000     		.short	128
 1208 0060 00450140 		.word	1073825024
 1209 0064 8000     		.short	128
ARM GAS  C:\Users\User\AppData\Local\Temp\ccceaWEK.s 			page 35


 1210 0066 00490140 		.4byte	1073826048
 1211 006a 8000     		.short	128
 1212 006c 004C0140 		.word	1073826816
 1213 0070 8000     		.short	128
 1214 0072 004D0140 		.4byte	1073827072
 1215 0076 8000     		.short	128
 1216 0078 10500140 		.word	1073827856
 1217 007c 1000     		.short	16
 1218 007e 0000     		.align	2
 1219              		.type	cfg_memcpy_list.5029, %object
 1220              		.size	cfg_memcpy_list.5029, 360
 1221              	cfg_memcpy_list.5029:
 1222 0080 30520040 		.word	1073762864
 1223 0084 00000048 		.word	1207959552
 1224 0088 0700     		.short	7
 1225 008a 78520040 		.4byte	1073762936
 1226 008e 08000048 		.4byte	1207959560
 1227 0092 0700     		.short	7
 1228 0094 78450040 		.word	1073759608
 1229 0098 10000048 		.word	1207959568
 1230 009c 0800     		.short	8
 1231 009e 00510140 		.4byte	1073828096
 1232 00a2 18000048 		.4byte	1207959576
 1233 00a6 0800     		.short	8
 1234 00a8 000C0140 		.word	1073810432
 1235 00ac 20000048 		.word	1207959584
 1236 00b0 8000     		.short	128
 1237 00b2 800C0140 		.4byte	1073810560
 1238 00b6 A0000048 		.4byte	1207959712
 1239 00ba 8000     		.short	128
 1240 00bc 000E0140 		.word	1073810944
 1241 00c0 20010048 		.word	1207959840
 1242 00c4 8000     		.short	128
 1243 00c6 800E0140 		.4byte	1073811072
 1244 00ca A0010048 		.4byte	1207959968
 1245 00ce 8000     		.short	128
 1246 00d0 00500140 		.word	1073827840
 1247 00d4 20020048 		.word	1207960096
 1248 00d8 1000     		.short	16
 1249 00da 804D0140 		.4byte	1073827200
 1250 00de 30020048 		.4byte	1207960112
 1251 00e2 8000     		.short	128
 1252 00e4 804C0140 		.word	1073826944
 1253 00e8 B0020048 		.word	1207960240
 1254 00ec 8000     		.short	128
 1255 00ee 00470140 		.4byte	1073825536
 1256 00f2 30030048 		.4byte	1207960368
 1257 00f6 8000     		.short	128
 1258 00f8 80470140 		.word	1073825664
 1259 00fc B0030048 		.word	1207960496
 1260 0100 8000     		.short	128
 1261 0102 00460140 		.4byte	1073825280
 1262 0106 30040048 		.4byte	1207960624
 1263 010a 8000     		.short	128
 1264 010c 80460140 		.word	1073825408
 1265 0110 B0040048 		.word	1207960752
 1266 0114 8000     		.short	128
ARM GAS  C:\Users\User\AppData\Local\Temp\ccceaWEK.s 			page 36


 1267 0116 80450140 		.4byte	1073825152
 1268 011a 30050048 		.4byte	1207960880
 1269 011e 8000     		.short	128
 1270 0120 00440140 		.word	1073824768
 1271 0124 B0050048 		.word	1207961008
 1272 0128 8000     		.short	128
 1273 012a 80440140 		.4byte	1073824896
 1274 012e 30060048 		.4byte	1207961136
 1275 0132 8000     		.short	128
 1276 0134 801B0140 		.word	1073814400
 1277 0138 B0060048 		.word	1207961264
 1278 013c 8000     		.short	128
 1279 013e 80150140 		.4byte	1073812864
 1280 0142 30070048 		.4byte	1207961392
 1281 0146 8000     		.short	128
 1282 0148 80190140 		.word	1073813888
 1283 014c B0070048 		.word	1207961520
 1284 0150 8000     		.short	128
 1285 0152 80170140 		.4byte	1073813376
 1286 0156 30080048 		.4byte	1207961648
 1287 015a 8000     		.short	128
 1288 015c 000D0140 		.word	1073810688
 1289 0160 B0080048 		.word	1207961776
 1290 0164 8000     		.short	128
 1291 0166 800D0140 		.4byte	1073810816
 1292 016a 30090048 		.4byte	1207961904
 1293 016e 8000     		.short	128
 1294 0170 80030140 		.word	1073808256
 1295 0174 B0090048 		.word	1207962032
 1296 0178 8000     		.short	128
 1297 017a 000F0140 		.4byte	1073811200
 1298 017e 300A0048 		.4byte	1207962160
 1299 0182 8000     		.short	128
 1300 0184 800F0140 		.word	1073811328
 1301 0188 B00A0048 		.word	1207962288
 1302 018c 8000     		.short	128
 1303 018e 80490140 		.4byte	1073826176
 1304 0192 300B0048 		.4byte	1207962416
 1305 0196 8000     		.short	128
 1306 0198 00480140 		.word	1073825792
 1307 019c B00B0048 		.word	1207962544
 1308 01a0 8000     		.short	128
 1309 01a2 80480140 		.4byte	1073825920
 1310 01a6 300C0048 		.4byte	1207962672
 1311 01aa 8000     		.short	128
 1312 01ac 00430140 		.word	1073824512
 1313 01b0 B00C0048 		.word	1207962800
 1314 01b4 8000     		.short	128
 1315 01b6 80430140 		.4byte	1073824640
 1316 01ba 300D0048 		.4byte	1207962928
 1317 01be 8000     		.short	128
 1318 01c0 80420140 		.word	1073824384
 1319 01c4 B00D0048 		.word	1207963056
 1320 01c8 8000     		.short	128
 1321 01ca 80410140 		.4byte	1073824128
 1322 01ce 300E0048 		.4byte	1207963184
 1323 01d2 8000     		.short	128
ARM GAS  C:\Users\User\AppData\Local\Temp\ccceaWEK.s 			page 37


 1324 01d4 00400140 		.word	1073823744
 1325 01d8 B00E0048 		.word	1207963312
 1326 01dc 8000     		.short	128
 1327 01de 80400140 		.4byte	1073823872
 1328 01e2 300F0048 		.4byte	1207963440
 1329 01e6 8000     		.short	128
 1330              		.text
 1331              	.Letext0:
 1332              		.file 2 "c:\\program files (x86)\\cypress\\psoc creator\\4.4\\psoc creator\\import\\gnu\\arm\\5.4.
 1333              		.file 3 "Generated_Source\\PSoC5\\cytypes.h"