ARM GAS  C:\Users\User\AppData\Local\Temp\ccUL1fbX.s 			page 1


   1              		.syntax unified
   2              		.cpu cortex-m3
   3              		.fpu softvfp
   4              		.eabi_attribute 20, 1
   5              		.eabi_attribute 21, 1
   6              		.eabi_attribute 23, 3
   7              		.eabi_attribute 24, 1
   8              		.eabi_attribute 25, 1
   9              		.eabi_attribute 26, 1
  10              		.eabi_attribute 30, 6
  11              		.eabi_attribute 34, 1
  12              		.eabi_attribute 18, 4
  13              		.thumb
  14              		.syntax unified
  15              		.file	"main.c"
  16              		.text
  17              	.Ltext0:
  18              		.cfi_sections	.debug_frame
  19              		.comm	buffer,64,4
  20              		.comm	calibrate_array,20,4
  21              		.syntax unified
  22              		.global _printf_float
  23              		.thumb
  24              		.syntax unified
  25              		.comm	RX_Data,64,4
  26              		.comm	TX_Data,64,4
  27              		.comm	LCD_str_top,16,4
  28              		.comm	LCD_str_bot,16,4
  29              		.comm	TIA_resistor_value_index,1,1
  30              		.comm	ADC_buffer_index,1,1
  31              		.comm	ADC_config,1,1
  32              		.comm	voltage,2,2
  33              		.comm	current,8,8
  34              		.comm	dac_Volts,1,1
  35              		.comm	conversionCount,1,1
  36              		.comm	dataReady,1,1
  37              		.comm	measureADC,8,8
  38              		.comm	adcValue,4,4
  39              		.comm	signedValue,4,4
  40              		.section	.text.ADC_ISR_RESET,"ax",%progbits
  41              		.align	2
  42              		.global	ADC_ISR_RESET
  43              		.thumb
  44              		.thumb_func
  45              		.type	ADC_ISR_RESET, %function
  46              	ADC_ISR_RESET:
  47              	.LFB64:
  48              		.file 1 "main.c"
   1:main.c        **** /*********************************************************************************
   2:main.c        **** * File Name: main.c
   3:main.c        **** * Version 1
   4:main.c        **** *
   5:main.c        **** * Description: Updated version for chronoamperometric testing
   6:main.c        **** *
   7:main.c        **** **********************************************************************************
   8:main.c        **** * Some parts Copyright Highland Biosciences Ltd., Scotland
   9:main.c        **** * Some parts Copyright Naresuan University, Phitsanulok Thailand
ARM GAS  C:\Users\User\AppData\Local\Temp\ccUL1fbX.s 			page 2


  10:main.c        **** * Released under Creative Commons Attribution-ShareAlike  3.0 (CC BY-SA 3.0 US)
  11:main.c        **** *
  12:main.c        **** * Refactored Aug 8, 2024
  13:main.c        **** *
  14:main.c        **** * PSoC-Potentiostat Commands
  15:main.c        **** * The following are the inputs commands the device will take, all inputs are inputted as ASCII stri
  16:main.c        **** * 'I' - Identifies the device, will respond through the USB
  17:main.c        **** * "L|X" - Set electrode configuration to 2 or 3 electrodes. X=0 is 2 electrodes, 1=3 electrodes
  18:main.c        **** * "M|XXXX|YYYY" - Run an amperometry experiment. You need to start to read the data the device will
  19:main.c        **** * 'B' - Calibrate the ADC and TIA signal chain.
  20:main.c        **** * "T|XXXXX" - set the period value of the PWM used as a timer that starts the isrs to change the DA
  21:main.c        **** * "C|XXXXX" - set the compare value of the PWM used as a timer that sets when the DAC changes compa
  22:main.c        **** * 'X' - Reset the device. Disable all isrs and put the hardware to sleep.
  23:main.c        **** * "D|XXX" - Set the voltage control 8 bit DAC. XXX is the value to put in the DAC
  24:main.c        **** * 'H' - Wake up all the hardware, enable All
  25:main.c        **** *********************************************************************************/
  26:main.c        **** 
  27:main.c        **** #include <main.h>
  28:main.c        **** #include <helper_functions.h>
  29:main.c        **** 
  30:main.c        **** 
  31:main.c        **** #if defined (__GNUC__)
  32:main.c        ****     /* Add an explicit reference to the floating point printf library */
  33:main.c        ****     /* to allow usage of the floating point conversion specifiers. */
  34:main.c        ****     /* This is not linked in by default with the newlib-nano library. */
  35:main.c        ****     asm (".global _printf_float");
  36:main.c        **** #endif
  37:main.c        **** 
  38:main.c        **** 
  39:main.c        **** uint8_t RX_Data[USBUART_BUFFER_SIZE];
  40:main.c        **** uint8_t TX_Data[USBUART_BUFFER_SIZE];
  41:main.c        **** 
  42:main.c        **** uint8_t  LCD_str_top[MAX_LCD_BYTES];                       // buffer for LCD screen, make it extra 
  43:main.c        **** uint8_t  LCD_str_bot[MAX_LCD_BYTES];  
  44:main.c        **** 
  45:main.c        **** uint8_t TIA_resistor_value_index;
  46:main.c        **** uint8_t ADC_buffer_index;
  47:main.c        **** uint8_t ADC_config;
  48:main.c        **** 
  49:main.c        **** 
  50:main.c        **** int16_t voltage;
  51:main.c        **** double current;
  52:main.c        **** uint8_t dac_Volts;
  53:main.c        **** uint8_t conversionCount;
  54:main.c        **** uint8_t dataReady;
  55:main.c        **** 
  56:main.c        **** double  measureADC;
  57:main.c        **** uint32_t adcValue;
  58:main.c        **** int32_t  signedValue;
  59:main.c        **** 
  60:main.c        **** 
  61:main.c        **** // so this is called by PWM1 every 250mS
  62:main.c        **** CY_ISR(ADC_ISR_RESET)
  63:main.c        **** {
  49              		.loc 1 63 0
  50              		.cfi_startproc
  51              		@ args = 0, pretend = 0, frame = 0
ARM GAS  C:\Users\User\AppData\Local\Temp\ccUL1fbX.s 			page 3


  52              		@ frame_needed = 1, uses_anonymous_args = 0
  53              		@ link register save eliminated.
  54 0000 90B4     		push	{r4, r7}
  55              		.cfi_def_cfa_offset 8
  56              		.cfi_offset 4, -8
  57              		.cfi_offset 7, -4
  58 0002 00AF     		add	r7, sp, #0
  59              		.cfi_def_cfa_register 7
  64:main.c        ****     conversionCount = 0;
  60              		.loc 1 64 0
  61 0004 064B     		ldr	r3, .L2
  62 0006 0022     		movs	r2, #0
  63 0008 1A70     		strb	r2, [r3]
  65:main.c        ****     measureADC = 0;
  64              		.loc 1 65 0
  65 000a 064A     		ldr	r2, .L2+4
  66 000c 4FF00003 		mov	r3, #0
  67 0010 4FF00004 		mov	r4, #0
  68 0014 C2E90034 		strd	r3, [r2]
  66:main.c        **** }
  69              		.loc 1 66 0
  70 0018 00BF     		nop
  71 001a BD46     		mov	sp, r7
  72              		.cfi_def_cfa_register 13
  73              		@ sp needed
  74 001c 90BC     		pop	{r4, r7}
  75              		.cfi_restore 7
  76              		.cfi_restore 4
  77              		.cfi_def_cfa_offset 0
  78 001e 7047     		bx	lr
  79              	.L3:
  80              		.align	2
  81              	.L2:
  82 0020 00000000 		.word	conversionCount
  83 0024 00000000 		.word	measureADC
  84              		.cfi_endproc
  85              	.LFE64:
  86              		.size	ADC_ISR_RESET, .-ADC_ISR_RESET
  87              		.global	__aeabi_i2d
  88              		.global	__aeabi_ddiv
  89              		.global	__aeabi_dadd
  90              		.section	.text.ADC_ISR,"ax",%progbits
  91              		.align	2
  92              		.global	ADC_ISR
  93              		.thumb
  94              		.thumb_func
  95              		.type	ADC_ISR, %function
  96              	ADC_ISR:
  97              	.LFB65:
  67:main.c        **** 
  68:main.c        **** CY_ISR(ADC_ISR)
  69:main.c        **** {
  98              		.loc 1 69 0
  99              		.cfi_startproc
 100              		@ args = 0, pretend = 0, frame = 0
 101              		@ frame_needed = 1, uses_anonymous_args = 0
 102 0000 98B5     		push	{r3, r4, r7, lr}
ARM GAS  C:\Users\User\AppData\Local\Temp\ccUL1fbX.s 			page 4


 103              		.cfi_def_cfa_offset 16
 104              		.cfi_offset 3, -16
 105              		.cfi_offset 4, -12
 106              		.cfi_offset 7, -8
 107              		.cfi_offset 14, -4
 108 0002 00AF     		add	r7, sp, #0
 109              		.cfi_def_cfa_register 7
  70:main.c        ****     if (conversionCount < NUM_CONVERSIONS)    
 110              		.loc 1 70 0
 111 0004 264B     		ldr	r3, .L11
 112 0006 1B78     		ldrb	r3, [r3]	@ zero_extendqisi2
 113 0008 032B     		cmp	r3, #3
 114 000a 3AD8     		bhi	.L5
  71:main.c        ****     {
  72:main.c        ****         if (ADC_DelSig_IsEndConversion(ADC_DelSig_RETURN_STATUS))
 115              		.loc 1 72 0
 116 000c 0120     		movs	r0, #1
 117 000e FFF7FEFF 		bl	ADC_DelSig_IsEndConversion
 118 0012 0346     		mov	r3, r0
 119 0014 002B     		cmp	r3, #0
 120 0016 41D0     		beq	.L10
  73:main.c        ****         {
  74:main.c        ****             adcValue =  ADC_DelSig_GetResult32();
 121              		.loc 1 74 0
 122 0018 FFF7FEFF 		bl	ADC_DelSig_GetResult32
 123 001c 0346     		mov	r3, r0
 124 001e 1A46     		mov	r2, r3
 125 0020 204B     		ldr	r3, .L11+4
 126 0022 1A60     		str	r2, [r3]
  75:main.c        ****                                    
  76:main.c        ****             if (adcValue & 0x80000000) 
 127              		.loc 1 76 0
 128 0024 1F4B     		ldr	r3, .L11+4
 129 0026 1B68     		ldr	r3, [r3]
 130 0028 002B     		cmp	r3, #0
 131 002a 05DA     		bge	.L7
  77:main.c        ****             {
  78:main.c        ****                 signedValue = (int32_t)(adcValue - 0xFFFFFFFF - 1);
 132              		.loc 1 78 0
 133 002c 1D4B     		ldr	r3, .L11+4
 134 002e 1B68     		ldr	r3, [r3]
 135 0030 1A46     		mov	r2, r3
 136 0032 1D4B     		ldr	r3, .L11+8
 137 0034 1A60     		str	r2, [r3]
 138 0036 04E0     		b	.L8
 139              	.L7:
  79:main.c        ****             } 
  80:main.c        ****             else 
  81:main.c        ****             {
  82:main.c        ****                 signedValue = (int32_t)adcValue;
 140              		.loc 1 82 0
 141 0038 1A4B     		ldr	r3, .L11+4
 142 003a 1B68     		ldr	r3, [r3]
 143 003c 1A46     		mov	r2, r3
 144 003e 1A4B     		ldr	r3, .L11+8
 145 0040 1A60     		str	r2, [r3]
 146              	.L8:
ARM GAS  C:\Users\User\AppData\Local\Temp\ccUL1fbX.s 			page 5


  83:main.c        ****             }
  84:main.c        ****             
  85:main.c        ****             measureADC = measureADC + ((double)(signedValue))/4;      
 147              		.loc 1 85 0
 148 0042 194B     		ldr	r3, .L11+8
 149 0044 1B68     		ldr	r3, [r3]
 150 0046 1846     		mov	r0, r3
 151 0048 FFF7FEFF 		bl	__aeabi_i2d
 152 004c 4FF00002 		mov	r2, #0
 153 0050 164B     		ldr	r3, .L11+12
 154 0052 FFF7FEFF 		bl	__aeabi_ddiv
 155 0056 0346     		mov	r3, r0
 156 0058 0C46     		mov	r4, r1
 157 005a 1846     		mov	r0, r3
 158 005c 2146     		mov	r1, r4
 159 005e 144B     		ldr	r3, .L11+16
 160 0060 18CB     		ldmia	r3, {r3-r4}
 161 0062 1A46     		mov	r2, r3
 162 0064 2346     		mov	r3, r4
 163 0066 FFF7FEFF 		bl	__aeabi_dadd
 164 006a 0346     		mov	r3, r0
 165 006c 0C46     		mov	r4, r1
 166 006e 104A     		ldr	r2, .L11+16
 167 0070 C2E90034 		strd	r3, [r2]
  86:main.c        ****         
  87:main.c        ****             conversionCount++;
 168              		.loc 1 87 0
 169 0074 0A4B     		ldr	r3, .L11
 170 0076 1B78     		ldrb	r3, [r3]	@ zero_extendqisi2
 171 0078 0133     		adds	r3, r3, #1
 172 007a DAB2     		uxtb	r2, r3
 173 007c 084B     		ldr	r3, .L11
 174 007e 1A70     		strb	r2, [r3]
  88:main.c        ****         }
  89:main.c        ****     }
  90:main.c        ****     else
  91:main.c        ****     {
  92:main.c        ****         if (conversionCount == NUM_CONVERSIONS)
  93:main.c        ****         {           
  94:main.c        ****             dataReady = 1;
  95:main.c        ****             conversionCount++;
  96:main.c        ****         }
  97:main.c        ****         else
  98:main.c        ****         {
  99:main.c        ****             /* do nothing */    
 100:main.c        ****         }          
 101:main.c        ****     }    
 102:main.c        **** }
 175              		.loc 1 102 0
 176 0080 0CE0     		b	.L10
 177              	.L5:
  92:main.c        ****         {           
 178              		.loc 1 92 0
 179 0082 074B     		ldr	r3, .L11
 180 0084 1B78     		ldrb	r3, [r3]	@ zero_extendqisi2
 181 0086 042B     		cmp	r3, #4
 182 0088 08D1     		bne	.L10
ARM GAS  C:\Users\User\AppData\Local\Temp\ccUL1fbX.s 			page 6


  94:main.c        ****             conversionCount++;
 183              		.loc 1 94 0
 184 008a 0A4B     		ldr	r3, .L11+20
 185 008c 0122     		movs	r2, #1
 186 008e 1A70     		strb	r2, [r3]
  95:main.c        ****         }
 187              		.loc 1 95 0
 188 0090 034B     		ldr	r3, .L11
 189 0092 1B78     		ldrb	r3, [r3]	@ zero_extendqisi2
 190 0094 0133     		adds	r3, r3, #1
 191 0096 DAB2     		uxtb	r2, r3
 192 0098 014B     		ldr	r3, .L11
 193 009a 1A70     		strb	r2, [r3]
 194              	.L10:
 195              		.loc 1 102 0
 196 009c 00BF     		nop
 197 009e 98BD     		pop	{r3, r4, r7, pc}
 198              	.L12:
 199              		.align	2
 200              	.L11:
 201 00a0 00000000 		.word	conversionCount
 202 00a4 00000000 		.word	adcValue
 203 00a8 00000000 		.word	signedValue
 204 00ac 00001040 		.word	1074790400
 205 00b0 00000000 		.word	measureADC
 206 00b4 00000000 		.word	dataReady
 207              		.cfi_endproc
 208              	.LFE65:
 209              		.size	ADC_ISR, .-ADC_ISR
 210              		.section	.rodata
 211              		.align	2
 212              	.LC0:
 213 0000 566F6C74 		.ascii	"Voltage= %u mV\000"
 213      6167653D 
 213      20257520 
 213      6D5600
 214              		.global	__aeabi_d2iz
 215 000f 00       		.align	2
 216              	.LC1:
 217 0010 4164633D 		.ascii	"Adc= %u A\000"
 217      20257520 
 217      4100
 218 001a 0000     		.align	2
 219              	.LC2:
 220 001c 566F6C74 		.ascii	"Voltage= %u  mV ADC= %u mA\000"
 220      6167653D 
 220      20257520 
 220      206D5620 
 220      4144433D 
 221              		.section	.text.main,"ax",%progbits
 222              		.align	2
 223              		.global	main
 224              		.thumb
 225              		.thumb_func
 226              		.type	main, %function
 227              	main:
 228              	.LFB66:
ARM GAS  C:\Users\User\AppData\Local\Temp\ccUL1fbX.s 			page 7


 103:main.c        ****    
 104:main.c        **** 
 105:main.c        **** int main() {
 229              		.loc 1 105 0
 230              		.cfi_startproc
 231              		@ args = 0, pretend = 0, frame = 8
 232              		@ frame_needed = 1, uses_anonymous_args = 0
 233 0000 B0B5     		push	{r4, r5, r7, lr}
 234              		.cfi_def_cfa_offset 16
 235              		.cfi_offset 4, -16
 236              		.cfi_offset 5, -12
 237              		.cfi_offset 7, -8
 238              		.cfi_offset 14, -4
 239 0002 84B0     		sub	sp, sp, #16
 240              		.cfi_def_cfa_offset 32
 241 0004 02AF     		add	r7, sp, #8
 242              		.cfi_def_cfa 7, 24
 106:main.c        ****        
 107:main.c        ****     LCD_Start();
 243              		.loc 1 107 0
 244 0006 FFF7FEFF 		bl	LCD_Start
 108:main.c        ****     
 109:main.c        ****     // Enable global interrupts
 110:main.c        ****     CyGlobalIntEnable;   
 245              		.loc 1 110 0
 246              		.syntax unified
 247              	@ 110 "main.c" 1
 248 000a 62B6     		CPSIE   i
 249              	@ 0 "" 2
 111:main.c        ****      
 112:main.c        ****     /* Start USBFS operation with 5-V operation. */
 113:main.c        ****     USBUART_Start(USBFS_DEVICE, USBUART_5V_OPERATION);
 250              		.loc 1 113 0
 251              		.thumb
 252              		.syntax unified
 253 000c 0121     		movs	r1, #1
 254 000e 0020     		movs	r0, #0
 255 0010 FFF7FEFF 		bl	USBUART_Start
 114:main.c        ****     
 115:main.c        ****     /* initialise the system */
 116:main.c        ****     helper_HardwareInit();  
 256              		.loc 1 116 0
 257 0014 FFF7FEFF 		bl	helper_HardwareInit
 117:main.c        ****     
 118:main.c        ****     /* Safe Default Settings */
 119:main.c        ****     AMux_electrode_Start();
 258              		.loc 1 119 0
 259 0018 FFF7FEFF 		bl	AMux_electrode_Start
 120:main.c        ****     AMux_electrode_Select(TWO_ELECTRODE_CONFIG);  
 260              		.loc 1 120 0
 261 001c 0020     		movs	r0, #0
 262 001e FFF7FEFF 		bl	AMux_electrode_FastSelect
 121:main.c        ****         
 122:main.c        ****     AMux_TIA_input_Start();
 263              		.loc 1 122 0
 264 0022 FFF7FEFF 		bl	AMux_TIA_input_Start
 123:main.c        ****     AMux_TIA_input_Select(AMux_TIA_working_electrode_ch);   
ARM GAS  C:\Users\User\AppData\Local\Temp\ccUL1fbX.s 			page 8


 265              		.loc 1 123 0
 266 0026 0120     		movs	r0, #1
 267 0028 FFF7FEFF 		bl	AMux_TIA_input_FastSelect
 124:main.c        ****     
 125:main.c        ****     ADC_buffer_index = 1;
 268              		.loc 1 125 0
 269 002c 8C4B     		ldr	r3, .L35
 270 002e 0122     		movs	r2, #1
 271 0030 1A70     		strb	r2, [r3]
 126:main.c        ****     ADC_config = 1;
 272              		.loc 1 126 0
 273 0032 8C4B     		ldr	r3, .L35+4
 274 0034 0122     		movs	r2, #1
 275 0036 1A70     		strb	r2, [r3]
 127:main.c        ****     TIA_resistor_value_index = 0;
 276              		.loc 1 127 0
 277 0038 8B4B     		ldr	r3, .L35+8
 278 003a 0022     		movs	r2, #0
 279 003c 1A70     		strb	r2, [r3]
 128:main.c        ****     TIA_SetResFB(TIA_resistor_value_index);
 280              		.loc 1 128 0
 281 003e 8A4B     		ldr	r3, .L35+8
 282 0040 1B78     		ldrb	r3, [r3]	@ zero_extendqisi2
 283 0042 1846     		mov	r0, r3
 284 0044 FFF7FEFF 		bl	TIA_SetResFB
 129:main.c        ****         
 130:main.c        ****     dac_Volts = VIRTUAL_GROUND;
 285              		.loc 1 130 0
 286 0048 884B     		ldr	r3, .L35+12
 287 004a 8022     		movs	r2, #128
 288 004c 1A70     		strb	r2, [r3]
 131:main.c        ****     dac_Setvalue(dac_Volts); 
 289              		.loc 1 131 0
 290 004e 874B     		ldr	r3, .L35+12
 291 0050 1B78     		ldrb	r3, [r3]	@ zero_extendqisi2
 292 0052 1846     		mov	r0, r3
 293 0054 FFF7FEFF 		bl	dac_Setvalue
 132:main.c        ****     
 133:main.c        ****     voltage = 0;
 294              		.loc 1 133 0
 295 0058 854B     		ldr	r3, .L35+16
 296 005a 0022     		movs	r2, #0
 297 005c 1A80     		strh	r2, [r3]	@ movhi
 134:main.c        ****     
 135:main.c        ****     /* enable the system ready to begin measurements */
 136:main.c        ****     helper_HardwareEnable();  
 298              		.loc 1 136 0
 299 005e FFF7FEFF 		bl	helper_HardwareEnable
 137:main.c        ****     
 138:main.c        ****     isr_adc_reset_StartEx(ADC_ISR_RESET);
 300              		.loc 1 138 0
 301 0062 8448     		ldr	r0, .L35+20
 302 0064 FFF7FEFF 		bl	isr_adc_reset_StartEx
 139:main.c        ****     isr_adc_StartEx(ADC_ISR);
 303              		.loc 1 139 0
 304 0068 8348     		ldr	r0, .L35+24
 305 006a FFF7FEFF 		bl	isr_adc_StartEx
ARM GAS  C:\Users\User\AppData\Local\Temp\ccUL1fbX.s 			page 9


 140:main.c        ****     
 141:main.c        ****   
 142:main.c        ****     ADC_DelSig_StartConvert(); // Start continuous conversions
 306              		.loc 1 142 0
 307 006e FFF7FEFF 		bl	ADC_DelSig_StartConvert
 308              	.L33:
 143:main.c        ****     
 144:main.c        ****     for(;;) 
 145:main.c        ****     {
 146:main.c        ****      
 147:main.c        ****         /* Host can send double SET_INTERFACE request. */
 148:main.c        ****         if (0u != USBUART_IsConfigurationChanged())
 309              		.loc 1 148 0
 310 0072 FFF7FEFF 		bl	USBUART_IsConfigurationChanged
 311 0076 0346     		mov	r3, r0
 312 0078 002B     		cmp	r3, #0
 313 007a 06D0     		beq	.L14
 149:main.c        ****         {
 150:main.c        ****             /* Initialize IN endpoints when device is configured. */
 151:main.c        ****             if (0u != USBUART_GetConfiguration())
 314              		.loc 1 151 0
 315 007c FFF7FEFF 		bl	USBUART_GetConfiguration
 316 0080 0346     		mov	r3, r0
 317 0082 002B     		cmp	r3, #0
 318 0084 01D0     		beq	.L14
 152:main.c        ****             {
 153:main.c        ****                 /* Enumeration is done, enable OUT endpoint to receive data from host. */
 154:main.c        ****                 USBUART_CDC_Init();
 319              		.loc 1 154 0
 320 0086 FFF7FEFF 		bl	USBUART_CDC_Init
 321              	.L14:
 155:main.c        ****             }
 156:main.c        ****         }
 157:main.c        ****         
 158:main.c        ****         
 159:main.c        ****         
 160:main.c        ****         /* Only service USB CDC when device is connected. */
 161:main.c        ****         if (0u != USBUART_GetConfiguration())
 322              		.loc 1 161 0
 323 008a FFF7FEFF 		bl	USBUART_GetConfiguration
 324 008e 0346     		mov	r3, r0
 325 0090 002B     		cmp	r3, #0
 326 0092 EED0     		beq	.L33
 162:main.c        ****         {
 163:main.c        ****             /* Check for input data to process. */
 164:main.c        ****             if (0u != USBUART_DataIsReady())
 327              		.loc 1 164 0
 328 0094 FFF7FEFF 		bl	USBUART_DataIsReady
 329 0098 0346     		mov	r3, r0
 330 009a 002B     		cmp	r3, #0
 331 009c 00F09880 		beq	.L16
 332              	.LBB2:
 165:main.c        ****             {
 166:main.c        ****                 /* Read data into the buffer and re-enable OUT endpoint. */        
 167:main.c        ****                 helper_ClrRx();
 333              		.loc 1 167 0
 334 00a0 FFF7FEFF 		bl	helper_ClrRx
ARM GAS  C:\Users\User\AppData\Local\Temp\ccUL1fbX.s 			page 10


 168:main.c        ****                 
 169:main.c        ****                 uint16 count = USBUART_GetAll(RX_Data);              
 335              		.loc 1 169 0
 336 00a4 7548     		ldr	r0, .L35+28
 337 00a6 FFF7FEFF 		bl	USBUART_GetAll
 338 00aa 0346     		mov	r3, r0
 339 00ac FB80     		strh	r3, [r7, #6]	@ movhi
 170:main.c        ****                                                
 171:main.c        ****                 if (0u != count) 
 340              		.loc 1 171 0
 341 00ae FB88     		ldrh	r3, [r7, #6]
 342 00b0 002B     		cmp	r3, #0
 343 00b2 DED0     		beq	.L33
 172:main.c        ****                 {  
 173:main.c        ****                     /* Wait until component is ready to send data to host. */
 174:main.c        ****                     while (0u == USBUART_CDCIsReady())
 344              		.loc 1 174 0
 345 00b4 00BF     		nop
 346              	.L18:
 347              		.loc 1 174 0 is_stmt 0 discriminator 1
 348 00b6 FFF7FEFF 		bl	USBUART_CDCIsReady
 349 00ba 0346     		mov	r3, r0
 350 00bc 002B     		cmp	r3, #0
 351 00be FAD0     		beq	.L18
 175:main.c        ****                     {
 176:main.c        ****                     }
 177:main.c        ****                                        
 178:main.c        ****                     /* Echo back */
 179:main.c        ****                     USBUART_PutData(RX_Data, count);
 352              		.loc 1 179 0 is_stmt 1
 353 00c0 FB88     		ldrh	r3, [r7, #6]
 354 00c2 1946     		mov	r1, r3
 355 00c4 6D48     		ldr	r0, .L35+28
 356 00c6 FFF7FEFF 		bl	USBUART_PutData
 180:main.c        ****                   
 181:main.c        ****                      /* Terminate with Null */
 182:main.c        ****                     if (USBUART_BUFFER_SIZE == count)
 357              		.loc 1 182 0
 358 00ca FB88     		ldrh	r3, [r7, #6]
 359 00cc 402B     		cmp	r3, #64
 360 00ce 09D1     		bne	.L34
 183:main.c        ****                     {
 184:main.c        ****                         /* Wait until component is ready to send data to PC. */
 185:main.c        ****                         while (0u == USBUART_CDCIsReady())
 361              		.loc 1 185 0
 362 00d0 00BF     		nop
 363              	.L20:
 364              		.loc 1 185 0 is_stmt 0 discriminator 1
 365 00d2 FFF7FEFF 		bl	USBUART_CDCIsReady
 366 00d6 0346     		mov	r3, r0
 367 00d8 002B     		cmp	r3, #0
 368 00da FAD0     		beq	.L20
 186:main.c        ****                         {
 187:main.c        ****                         }
 188:main.c        **** 
 189:main.c        ****                         /* Send zero-length packet to PC. */
 190:main.c        ****                         USBUART_PutData(NULL, 0u);
ARM GAS  C:\Users\User\AppData\Local\Temp\ccUL1fbX.s 			page 11


 369              		.loc 1 190 0 is_stmt 1
 370 00dc 0021     		movs	r1, #0
 371 00de 0020     		movs	r0, #0
 372 00e0 FFF7FEFF 		bl	USBUART_PutData
 373              	.L34:
 191:main.c        ****                     }
 192:main.c        ****                     
 193:main.c        ****                     /* Wait until component is ready to send data to PC. */
 194:main.c        ****                     while (0u == USBUART_CDCIsReady())
 374              		.loc 1 194 0
 375 00e4 00BF     		nop
 376              	.L21:
 377              		.loc 1 194 0 is_stmt 0 discriminator 1
 378 00e6 FFF7FEFF 		bl	USBUART_CDCIsReady
 379 00ea 0346     		mov	r3, r0
 380 00ec 002B     		cmp	r3, #0
 381 00ee FAD0     		beq	.L21
 195:main.c        ****                     {
 196:main.c        ****                     }
 197:main.c        ****                         
 198:main.c        ****                     USBUART_PutCRLF();
 382              		.loc 1 198 0 is_stmt 1
 383 00f0 FFF7FEFF 		bl	USBUART_PutCRLF
 199:main.c        ****                    
 200:main.c        ****                    switch (RX_Data[0]) {                    // select case based upon the first 'L'
 384              		.loc 1 200 0
 385 00f4 614B     		ldr	r3, .L35+28
 386 00f6 1B78     		ldrb	r3, [r3]	@ zero_extendqisi2
 387 00f8 423B     		subs	r3, r3, #66
 388 00fa 162B     		cmp	r3, #22
 389 00fc B9D8     		bhi	.L33
 390 00fe 01A2     		adr	r2, .L23
 391 0100 52F823F0 		ldr	pc, [r2, r3, lsl #2]
 392              		.p2align 2
 393              	.L23:
 394 0104 61010000 		.word	.L22+1
 395 0108 73000000 		.word	.L33+1
 396 010c 93010000 		.word	.L24+1
 397 0110 67010000 		.word	.L25+1
 398 0114 6F010000 		.word	.L26+1
 399 0118 77010000 		.word	.L27+1
 400 011c C9010000 		.word	.L28+1
 401 0120 85010000 		.word	.L29+1
 402 0124 73000000 		.word	.L33+1
 403 0128 73000000 		.word	.L33+1
 404 012c 8B010000 		.word	.L30+1
 405 0130 C3010000 		.word	.L31+1
 406 0134 73000000 		.word	.L33+1
 407 0138 73000000 		.word	.L33+1
 408 013c 73000000 		.word	.L33+1
 409 0140 73000000 		.word	.L33+1
 410 0144 73000000 		.word	.L33+1
 411 0148 73000000 		.word	.L33+1
 412 014c 73000000 		.word	.L33+1
 413 0150 73000000 		.word	.L33+1
 414 0154 73000000 		.word	.L33+1
 415 0158 73000000 		.word	.L33+1
ARM GAS  C:\Users\User\AppData\Local\Temp\ccUL1fbX.s 			page 12


 416 015c 7F010000 		.word	.L32+1
 417              		.p2align 1
 418              	.L22:
 201:main.c        ****                 
 202:main.c        ****                     case CALIBRATE_TIA_ADC: ;               // 'B' calibrate the TIA / ADC current 
 203:main.c        ****                         calibrate_TIA();
 419              		.loc 1 203 0
 420 0160 FFF7FEFF 		bl	calibrate_TIA
 204:main.c        ****                         break;
 421              		.loc 1 204 0
 422 0164 7BE0     		b	.L15
 423              	.L25:
 205:main.c        ****                                
 206:main.c        ****                     case SET_ADC_CONFIG: ;                  // 'E' select one of the preset-configs
 207:main.c        ****                         user_setup_ADC_CONFIG(RX_Data);
 424              		.loc 1 207 0
 425 0166 4548     		ldr	r0, .L35+28
 426 0168 FFF7FEFF 		bl	user_setup_ADC_CONFIG
 208:main.c        ****                         break;
 427              		.loc 1 208 0
 428 016c 77E0     		b	.L15
 429              	.L26:
 209:main.c        ****                         
 210:main.c        ****                     case TIA_RESISTOR: ;                    //  'F' select the TIA resistor value (
 211:main.c        ****                         user_setup_TIA_RESISTOR(RX_Data);
 430              		.loc 1 211 0
 431 016e 4348     		ldr	r0, .L35+28
 432 0170 FFF7FEFF 		bl	user_setup_TIA_RESISTOR
 212:main.c        ****                         break;
 433              		.loc 1 212 0
 434 0174 73E0     		b	.L15
 435              	.L27:
 213:main.c        ****                                                 
 214:main.c        ****                     case ADC_BUFFER_GAIN: ;                 //  'G'  
 215:main.c        ****                         user_setup_ADC_BUFFER_GAIN(RX_Data);      
 436              		.loc 1 215 0
 437 0176 4148     		ldr	r0, .L35+28
 438 0178 FFF7FEFF 		bl	user_setup_ADC_BUFFER_GAIN
 216:main.c        ****                         break;
 439              		.loc 1 216 0
 440 017c 6FE0     		b	.L15
 441              	.L32:
 217:main.c        **** 
 218:main.c        ****                     case RESET_DEVICE: ;                    // 'X' reset the device by disableing i
 219:main.c        ****                         user_reset_device();
 442              		.loc 1 219 0
 443 017e FFF7FEFF 		bl	user_reset_device
 220:main.c        ****                         break;
 444              		.loc 1 220 0
 445 0182 6CE0     		b	.L15
 446              	.L29:
 221:main.c        ****                 
 222:main.c        ****                     case DEVICE_IDENTIFY: ;                 // 'I' identify the device 
 223:main.c        ****                         user_identify();
 447              		.loc 1 223 0
 448 0184 FFF7FEFF 		bl	user_identify
 224:main.c        ****                         break;
ARM GAS  C:\Users\User\AppData\Local\Temp\ccUL1fbX.s 			page 13


 449              		.loc 1 224 0
 450 0188 69E0     		b	.L15
 451              	.L30:
 225:main.c        ****                 
 226:main.c        ****                     case CHANGE_NUMBER_ELECTRODES: ;        // 'L' User wants to change the electro
 227:main.c        ****                         user_setup_electrode(RX_Data);
 452              		.loc 1 227 0
 453 018a 3C48     		ldr	r0, .L35+28
 454 018c FFF7FEFF 		bl	user_setup_electrode
 228:main.c        ****                         break;
 455              		.loc 1 228 0
 456 0190 65E0     		b	.L15
 457              	.L24:
 229:main.c        ****             
 230:main.c        ****                     case SET_DAC_VALUE: ;                   // 'D' set the dac value, based on the 
 231:main.c        ****                         dac_Volts = dac_Volts2adc(RX_Data);
 458              		.loc 1 231 0
 459 0192 3A48     		ldr	r0, .L35+28
 460 0194 FFF7FEFF 		bl	dac_Volts2adc
 461 0198 0346     		mov	r3, r0
 462 019a 1A46     		mov	r2, r3
 463 019c 334B     		ldr	r3, .L35+12
 464 019e 1A70     		strb	r2, [r3]
 232:main.c        ****                         dac_Setvalue(dac_Volts);   
 465              		.loc 1 232 0
 466 01a0 324B     		ldr	r3, .L35+12
 467 01a2 1B78     		ldrb	r3, [r3]	@ zero_extendqisi2
 468 01a4 1846     		mov	r0, r3
 469 01a6 FFF7FEFF 		bl	dac_Setvalue
 233:main.c        ****                         voltage = (int16_t)(dac_Volts-DAC_OFFSET)*DAC_RESOLUTION;           
 470              		.loc 1 233 0
 471 01aa 304B     		ldr	r3, .L35+12
 472 01ac 1B78     		ldrb	r3, [r3]	@ zero_extendqisi2
 473 01ae 9BB2     		uxth	r3, r3
 474 01b0 03F57863 		add	r3, r3, #3968
 475 01b4 9BB2     		uxth	r3, r3
 476 01b6 1B01     		lsls	r3, r3, #4
 477 01b8 9BB2     		uxth	r3, r3
 478 01ba 1AB2     		sxth	r2, r3
 479 01bc 2C4B     		ldr	r3, .L35+16
 480 01be 1A80     		strh	r2, [r3]	@ movhi
 234:main.c        ****                         break;
 481              		.loc 1 234 0
 482 01c0 4DE0     		b	.L15
 483              	.L31:
 235:main.c        ****                 
 236:main.c        ****                     case STOP_HARDWARE: ;                   // 'M' stop data acquisition
 237:main.c        ****                         helper_HardwareSleep();                 // Sleep the hardware
 484              		.loc 1 237 0
 485 01c2 FFF7FEFF 		bl	helper_HardwareSleep
 238:main.c        ****                         break;
 486              		.loc 1 238 0
 487 01c6 4AE0     		b	.L15
 488              	.L28:
 239:main.c        ****                 
 240:main.c        ****                     case START_HARDWARE: ;                  // 'H' Start taking measurements from t
 241:main.c        ****                         helper_HardwareWakeup();                // wake the hardware
ARM GAS  C:\Users\User\AppData\Local\Temp\ccUL1fbX.s 			page 14


 489              		.loc 1 241 0
 490 01c8 FFF7FEFF 		bl	helper_HardwareWakeup
 242:main.c        ****                         break;
 491              		.loc 1 242 0
 492 01cc 00BF     		nop
 493 01ce 46E0     		b	.L15
 494              	.L16:
 495              	.LBE2:
 243:main.c        ****                     }    
 244:main.c        ****                                       // end of switch statment                }
 245:main.c        ****                 }
 246:main.c        ****             }
 247:main.c        ****             else
 248:main.c        ****             {   
 249:main.c        ****                 if (dataReady ==1) 
 496              		.loc 1 249 0
 497 01d0 2B4B     		ldr	r3, .L35+32
 498 01d2 1B78     		ldrb	r3, [r3]	@ zero_extendqisi2
 499 01d4 012B     		cmp	r3, #1
 500 01d6 7FF44CAF 		bne	.L33
 250:main.c        ****                 {
 251:main.c        ****                     /* update the LCD display */
 252:main.c        ****                     LCD_ClearDisplay();
 501              		.loc 1 252 0
 502 01da 0120     		movs	r0, #1
 503 01dc FFF7FEFF 		bl	LCD_WriteControl
 253:main.c        ****                     helper_WipeLCD();
 504              		.loc 1 253 0
 505 01e0 FFF7FEFF 		bl	helper_WipeLCD
 254:main.c        ****                     
 255:main.c        ****                     /* update line 1 */
 256:main.c        ****                     LCD_Position(0u, 0u);
 506              		.loc 1 256 0
 507 01e4 0021     		movs	r1, #0
 508 01e6 0020     		movs	r0, #0
 509 01e8 FFF7FEFF 		bl	LCD_Position
 257:main.c        ****                     snprintf((char *)LCD_str_top,MAX_LCD_BYTES, "Voltage= %u mV", (int)voltage);
 510              		.loc 1 257 0
 511 01ec 204B     		ldr	r3, .L35+16
 512 01ee B3F90030 		ldrsh	r3, [r3]
 513 01f2 244A     		ldr	r2, .L35+36
 514 01f4 1021     		movs	r1, #16
 515 01f6 2448     		ldr	r0, .L35+40
 516 01f8 FFF7FEFF 		bl	snprintf
 258:main.c        ****                     LCD_PrintString((const char*)LCD_str_top);                                     
 517              		.loc 1 258 0
 518 01fc 2248     		ldr	r0, .L35+40
 519 01fe FFF7FEFF 		bl	LCD_PrintString
 259:main.c        ****                  
 260:main.c        ****                     /* update line 2 */
 261:main.c        ****                     LCD_Position(1u, 0u);
 520              		.loc 1 261 0
 521 0202 0021     		movs	r1, #0
 522 0204 0120     		movs	r0, #1
 523 0206 FFF7FEFF 		bl	LCD_Position
 262:main.c        ****                     snprintf((char *)LCD_str_bot,MAX_LCD_BYTES, "Adc= %u A", (int) measureADC);
 524              		.loc 1 262 0
ARM GAS  C:\Users\User\AppData\Local\Temp\ccUL1fbX.s 			page 15


 525 020a 204B     		ldr	r3, .L35+44
 526 020c 18CB     		ldmia	r3, {r3-r4}
 527 020e 1846     		mov	r0, r3
 528 0210 2146     		mov	r1, r4
 529 0212 FFF7FEFF 		bl	__aeabi_d2iz
 530 0216 0346     		mov	r3, r0
 531 0218 1D4A     		ldr	r2, .L35+48
 532 021a 1021     		movs	r1, #16
 533 021c 1D48     		ldr	r0, .L35+52
 534 021e FFF7FEFF 		bl	snprintf
 263:main.c        ****                     LCD_PrintString((const char*)LCD_str_bot);
 535              		.loc 1 263 0
 536 0222 1C48     		ldr	r0, .L35+52
 537 0224 FFF7FEFF 		bl	LCD_PrintString
 264:main.c        ****                                        
 265:main.c        ****                     /* Send out results to the USB Serial */
 266:main.c        ****                     helper_ClrTx();
 538              		.loc 1 266 0
 539 0228 FFF7FEFF 		bl	helper_ClrTx
 267:main.c        ****                     snprintf((char *)TX_Data, USBUART_BUFFER_SIZE, "Voltage= %u  mV ADC= %u mA",(in
 540              		.loc 1 267 0
 541 022c 104B     		ldr	r3, .L35+16
 542 022e B3F90030 		ldrsh	r3, [r3]
 543 0232 1D46     		mov	r5, r3
 544 0234 154B     		ldr	r3, .L35+44
 545 0236 18CB     		ldmia	r3, {r3-r4}
 546 0238 1846     		mov	r0, r3
 547 023a 2146     		mov	r1, r4
 548 023c FFF7FEFF 		bl	__aeabi_d2iz
 549 0240 0346     		mov	r3, r0
 550 0242 0093     		str	r3, [sp]
 551 0244 2B46     		mov	r3, r5
 552 0246 144A     		ldr	r2, .L35+56
 553 0248 4021     		movs	r1, #64
 554 024a 1448     		ldr	r0, .L35+60
 555 024c FFF7FEFF 		bl	snprintf
 268:main.c        ****                     USB_send (TX_Data, USBUART_BUFFER_SIZE ) ;
 556              		.loc 1 268 0
 557 0250 4021     		movs	r1, #64
 558 0252 1248     		ldr	r0, .L35+60
 559 0254 FFF7FEFF 		bl	USB_send
 269:main.c        ****                     
 270:main.c        ****                     dataReady =0;
 560              		.loc 1 270 0
 561 0258 094B     		ldr	r3, .L35+32
 562 025a 0022     		movs	r2, #0
 563 025c 1A70     		strb	r2, [r3]
 564              	.L15:
 271:main.c        ****                 }        
 272:main.c        ****             }
 273:main.c        ****         }
 274:main.c        ****     }                                                  
 565              		.loc 1 274 0 discriminator 1
 566 025e 08E7     		b	.L33
 567              	.L36:
 568              		.align	2
 569              	.L35:
ARM GAS  C:\Users\User\AppData\Local\Temp\ccUL1fbX.s 			page 16


 570 0260 00000000 		.word	ADC_buffer_index
 571 0264 00000000 		.word	ADC_config
 572 0268 00000000 		.word	TIA_resistor_value_index
 573 026c 00000000 		.word	dac_Volts
 574 0270 00000000 		.word	voltage
 575 0274 00000000 		.word	ADC_ISR_RESET
 576 0278 00000000 		.word	ADC_ISR
 577 027c 00000000 		.word	RX_Data
 578 0280 00000000 		.word	dataReady
 579 0284 00000000 		.word	.LC0
 580 0288 00000000 		.word	LCD_str_top
 581 028c 00000000 		.word	measureADC
 582 0290 10000000 		.word	.LC1
 583 0294 00000000 		.word	LCD_str_bot
 584 0298 1C000000 		.word	.LC2
 585 029c 00000000 		.word	TX_Data
 586              		.cfi_endproc
 587              	.LFE66:
 588              		.size	main, .-main
 589              		.text
 590              	.Letext0:
 591              		.file 2 "c:\\program files (x86)\\cypress\\psoc creator\\4.4\\psoc creator\\import\\gnu\\arm\\5.4.
 592              		.file 3 "c:\\program files (x86)\\cypress\\psoc creator\\4.4\\psoc creator\\import\\gnu\\arm\\5.4.
 593              		.file 4 "Generated_Source\\PSoC5/cytypes.h"
 594              		.file 5 "Generated_Source\\PSoC5/core_cm3.h"
 595              		.file 6 "./globals.h"
 596              		.file 7 "./calibrate.h"