ARM GAS  C:\Users\User\AppData\Local\Temp\cc25xQjQ.s 			page 1


   1              		.syntax unified
   2              		.cpu cortex-m3
   3              		.fpu softvfp
   4              		.eabi_attribute 20, 1
   5              		.eabi_attribute 21, 1
   6              		.eabi_attribute 23, 3
   7              		.eabi_attribute 24, 1
   8              		.eabi_attribute 25, 1
   9              		.eabi_attribute 26, 1
  10              		.eabi_attribute 30, 6
  11              		.eabi_attribute 34, 1
  12              		.eabi_attribute 18, 4
  13              		.thumb
  14              		.syntax unified
  15              		.file	"PWM_M.c"
  16              		.text
  17              	.Ltext0:
  18              		.cfi_sections	.debug_frame
  19              		.global	PWM_M_initVar
  20              		.bss
  21              		.type	PWM_M_initVar, %object
  22              		.size	PWM_M_initVar, 1
  23              	PWM_M_initVar:
  24 0000 00       		.space	1
  25              		.section	.text.PWM_M_Start,"ax",%progbits
  26              		.align	2
  27              		.global	PWM_M_Start
  28              		.thumb
  29              		.thumb_func
  30              		.type	PWM_M_Start, %function
  31              	PWM_M_Start:
  32              	.LFB0:
  33              		.file 1 "Generated_Source\\PSoC5\\PWM_M.c"
   1:Generated_Source\PSoC5/PWM_M.c **** /*******************************************************************************
   2:Generated_Source\PSoC5/PWM_M.c **** * File Name: PWM_M.c
   3:Generated_Source\PSoC5/PWM_M.c **** * Version 3.30
   4:Generated_Source\PSoC5/PWM_M.c **** *
   5:Generated_Source\PSoC5/PWM_M.c **** * Description:
   6:Generated_Source\PSoC5/PWM_M.c **** *  The PWM User Module consist of an 8 or 16-bit counter with two 8 or 16-bit
   7:Generated_Source\PSoC5/PWM_M.c **** *  comparitors. Each instance of this user module is capable of generating
   8:Generated_Source\PSoC5/PWM_M.c **** *  two PWM outputs with the same period. The pulse width is selectable between
   9:Generated_Source\PSoC5/PWM_M.c **** *  1 and 255/65535. The period is selectable between 2 and 255/65536 clocks.
  10:Generated_Source\PSoC5/PWM_M.c **** *  The compare value output may be configured to be active when the present
  11:Generated_Source\PSoC5/PWM_M.c **** *  counter is less than or less than/equal to the compare value.
  12:Generated_Source\PSoC5/PWM_M.c **** *  A terminal count output is also provided. It generates a pulse one clock
  13:Generated_Source\PSoC5/PWM_M.c **** *  width wide when the counter is equal to zero.
  14:Generated_Source\PSoC5/PWM_M.c **** *
  15:Generated_Source\PSoC5/PWM_M.c **** * Note:
  16:Generated_Source\PSoC5/PWM_M.c **** *
  17:Generated_Source\PSoC5/PWM_M.c **** *******************************************************************************
  18:Generated_Source\PSoC5/PWM_M.c **** * Copyright 2008-2014, Cypress Semiconductor Corporation.  All rights reserved.
  19:Generated_Source\PSoC5/PWM_M.c **** * You may use this file only in accordance with the license, terms, conditions,
  20:Generated_Source\PSoC5/PWM_M.c **** * disclaimers, and limitations in the end user license agreement accompanying
  21:Generated_Source\PSoC5/PWM_M.c **** * the software package with which this file was provided.
  22:Generated_Source\PSoC5/PWM_M.c **** ********************************************************************************/
  23:Generated_Source\PSoC5/PWM_M.c **** 
  24:Generated_Source\PSoC5/PWM_M.c **** #include "PWM_M.h"
ARM GAS  C:\Users\User\AppData\Local\Temp\cc25xQjQ.s 			page 2


  25:Generated_Source\PSoC5/PWM_M.c **** 
  26:Generated_Source\PSoC5/PWM_M.c **** /* Error message for removed <resource> through optimization */
  27:Generated_Source\PSoC5/PWM_M.c **** #ifdef PWM_M_PWMUDB_genblk1_ctrlreg__REMOVED
  28:Generated_Source\PSoC5/PWM_M.c ****     #error PWM_v3_30 detected with a constant 0 for the enable or \
  29:Generated_Source\PSoC5/PWM_M.c ****          constant 1 for reset. This will prevent the component from operating.
  30:Generated_Source\PSoC5/PWM_M.c **** #endif /* PWM_M_PWMUDB_genblk1_ctrlreg__REMOVED */
  31:Generated_Source\PSoC5/PWM_M.c **** 
  32:Generated_Source\PSoC5/PWM_M.c **** uint8 PWM_M_initVar = 0u;
  33:Generated_Source\PSoC5/PWM_M.c **** 
  34:Generated_Source\PSoC5/PWM_M.c **** 
  35:Generated_Source\PSoC5/PWM_M.c **** /*******************************************************************************
  36:Generated_Source\PSoC5/PWM_M.c **** * Function Name: PWM_M_Start
  37:Generated_Source\PSoC5/PWM_M.c **** ********************************************************************************
  38:Generated_Source\PSoC5/PWM_M.c **** *
  39:Generated_Source\PSoC5/PWM_M.c **** * Summary:
  40:Generated_Source\PSoC5/PWM_M.c **** *  The start function initializes the pwm with the default values, the
  41:Generated_Source\PSoC5/PWM_M.c **** *  enables the counter to begin counting.  It does not enable interrupts,
  42:Generated_Source\PSoC5/PWM_M.c **** *  the EnableInt command should be called if interrupt generation is required.
  43:Generated_Source\PSoC5/PWM_M.c **** *
  44:Generated_Source\PSoC5/PWM_M.c **** * Parameters:
  45:Generated_Source\PSoC5/PWM_M.c **** *  None
  46:Generated_Source\PSoC5/PWM_M.c **** *
  47:Generated_Source\PSoC5/PWM_M.c **** * Return:
  48:Generated_Source\PSoC5/PWM_M.c **** *  None
  49:Generated_Source\PSoC5/PWM_M.c **** *
  50:Generated_Source\PSoC5/PWM_M.c **** * Global variables:
  51:Generated_Source\PSoC5/PWM_M.c **** *  PWM_M_initVar: Is modified when this function is called for the
  52:Generated_Source\PSoC5/PWM_M.c **** *   first time. Is used to ensure that initialization happens only once.
  53:Generated_Source\PSoC5/PWM_M.c **** *
  54:Generated_Source\PSoC5/PWM_M.c **** *******************************************************************************/
  55:Generated_Source\PSoC5/PWM_M.c **** void PWM_M_Start(void) 
  56:Generated_Source\PSoC5/PWM_M.c **** {
  34              		.loc 1 56 0
  35              		.cfi_startproc
  36              		@ args = 0, pretend = 0, frame = 0
  37              		@ frame_needed = 1, uses_anonymous_args = 0
  38 0000 80B5     		push	{r7, lr}
  39              		.cfi_def_cfa_offset 8
  40              		.cfi_offset 7, -8
  41              		.cfi_offset 14, -4
  42 0002 00AF     		add	r7, sp, #0
  43              		.cfi_def_cfa_register 7
  57:Generated_Source\PSoC5/PWM_M.c ****     /* If not Initialized then initialize all required hardware and software */
  58:Generated_Source\PSoC5/PWM_M.c ****     if(PWM_M_initVar == 0u)
  44              		.loc 1 58 0
  45 0004 064B     		ldr	r3, .L3
  46 0006 1B78     		ldrb	r3, [r3]	@ zero_extendqisi2
  47 0008 002B     		cmp	r3, #0
  48 000a 04D1     		bne	.L2
  59:Generated_Source\PSoC5/PWM_M.c ****     {
  60:Generated_Source\PSoC5/PWM_M.c ****         PWM_M_Init();
  49              		.loc 1 60 0
  50 000c FFF7FEFF 		bl	PWM_M_Init
  61:Generated_Source\PSoC5/PWM_M.c ****         PWM_M_initVar = 1u;
  51              		.loc 1 61 0
  52 0010 034B     		ldr	r3, .L3
  53 0012 0122     		movs	r2, #1
ARM GAS  C:\Users\User\AppData\Local\Temp\cc25xQjQ.s 			page 3


  54 0014 1A70     		strb	r2, [r3]
  55              	.L2:
  62:Generated_Source\PSoC5/PWM_M.c ****     }
  63:Generated_Source\PSoC5/PWM_M.c ****     PWM_M_Enable();
  56              		.loc 1 63 0
  57 0016 FFF7FEFF 		bl	PWM_M_Enable
  64:Generated_Source\PSoC5/PWM_M.c **** 
  65:Generated_Source\PSoC5/PWM_M.c **** }
  58              		.loc 1 65 0
  59 001a 00BF     		nop
  60 001c 80BD     		pop	{r7, pc}
  61              	.L4:
  62 001e 00BF     		.align	2
  63              	.L3:
  64 0020 00000000 		.word	PWM_M_initVar
  65              		.cfi_endproc
  66              	.LFE0:
  67              		.size	PWM_M_Start, .-PWM_M_Start
  68              		.section	.text.PWM_M_Init,"ax",%progbits
  69              		.align	2
  70              		.global	PWM_M_Init
  71              		.thumb
  72              		.thumb_func
  73              		.type	PWM_M_Init, %function
  74              	PWM_M_Init:
  75              	.LFB1:
  66:Generated_Source\PSoC5/PWM_M.c **** 
  67:Generated_Source\PSoC5/PWM_M.c **** 
  68:Generated_Source\PSoC5/PWM_M.c **** /*******************************************************************************
  69:Generated_Source\PSoC5/PWM_M.c **** * Function Name: PWM_M_Init
  70:Generated_Source\PSoC5/PWM_M.c **** ********************************************************************************
  71:Generated_Source\PSoC5/PWM_M.c **** *
  72:Generated_Source\PSoC5/PWM_M.c **** * Summary:
  73:Generated_Source\PSoC5/PWM_M.c **** *  Initialize component's parameters to the parameters set by user in the
  74:Generated_Source\PSoC5/PWM_M.c **** *  customizer of the component placed onto schematic. Usually called in
  75:Generated_Source\PSoC5/PWM_M.c **** *  PWM_M_Start().
  76:Generated_Source\PSoC5/PWM_M.c **** *
  77:Generated_Source\PSoC5/PWM_M.c **** * Parameters:
  78:Generated_Source\PSoC5/PWM_M.c **** *  None
  79:Generated_Source\PSoC5/PWM_M.c **** *
  80:Generated_Source\PSoC5/PWM_M.c **** * Return:
  81:Generated_Source\PSoC5/PWM_M.c **** *  None
  82:Generated_Source\PSoC5/PWM_M.c **** *
  83:Generated_Source\PSoC5/PWM_M.c **** *******************************************************************************/
  84:Generated_Source\PSoC5/PWM_M.c **** void PWM_M_Init(void) 
  85:Generated_Source\PSoC5/PWM_M.c **** {
  76              		.loc 1 85 0
  77              		.cfi_startproc
  78              		@ args = 0, pretend = 0, frame = 8
  79              		@ frame_needed = 1, uses_anonymous_args = 0
  80 0000 80B5     		push	{r7, lr}
  81              		.cfi_def_cfa_offset 8
  82              		.cfi_offset 7, -8
  83              		.cfi_offset 14, -4
  84 0002 82B0     		sub	sp, sp, #8
  85              		.cfi_def_cfa_offset 16
  86 0004 00AF     		add	r7, sp, #0
ARM GAS  C:\Users\User\AppData\Local\Temp\cc25xQjQ.s 			page 4


  87              		.cfi_def_cfa_register 7
  86:Generated_Source\PSoC5/PWM_M.c ****     #if (PWM_M_UsingFixedFunction || PWM_M_UseControl)
  87:Generated_Source\PSoC5/PWM_M.c ****         uint8 ctrl;
  88:Generated_Source\PSoC5/PWM_M.c ****     #endif /* (PWM_M_UsingFixedFunction || PWM_M_UseControl) */
  89:Generated_Source\PSoC5/PWM_M.c **** 
  90:Generated_Source\PSoC5/PWM_M.c ****     #if(!PWM_M_UsingFixedFunction)
  91:Generated_Source\PSoC5/PWM_M.c ****         #if(PWM_M_UseStatus)
  92:Generated_Source\PSoC5/PWM_M.c ****             /* Interrupt State Backup for Critical Region*/
  93:Generated_Source\PSoC5/PWM_M.c ****             uint8 PWM_M_interruptState;
  94:Generated_Source\PSoC5/PWM_M.c ****         #endif /* (PWM_M_UseStatus) */
  95:Generated_Source\PSoC5/PWM_M.c ****     #endif /* (!PWM_M_UsingFixedFunction) */
  96:Generated_Source\PSoC5/PWM_M.c **** 
  97:Generated_Source\PSoC5/PWM_M.c ****     #if (PWM_M_UsingFixedFunction)
  98:Generated_Source\PSoC5/PWM_M.c ****         /* You are allowed to write the compare value (FF only) */
  99:Generated_Source\PSoC5/PWM_M.c ****         PWM_M_CONTROL |= PWM_M_CFG0_MODE;
 100:Generated_Source\PSoC5/PWM_M.c ****         #if (PWM_M_DeadBand2_4)
 101:Generated_Source\PSoC5/PWM_M.c ****             PWM_M_CONTROL |= PWM_M_CFG0_DB;
 102:Generated_Source\PSoC5/PWM_M.c ****         #endif /* (PWM_M_DeadBand2_4) */
 103:Generated_Source\PSoC5/PWM_M.c **** 
 104:Generated_Source\PSoC5/PWM_M.c ****         ctrl = PWM_M_CONTROL3 & ((uint8 )(~PWM_M_CTRL_CMPMODE1_MASK));
 105:Generated_Source\PSoC5/PWM_M.c ****         PWM_M_CONTROL3 = ctrl | PWM_M_DEFAULT_COMPARE1_MODE;
 106:Generated_Source\PSoC5/PWM_M.c **** 
 107:Generated_Source\PSoC5/PWM_M.c ****          /* Clear and Set SYNCTC and SYNCCMP bits of RT1 register */
 108:Generated_Source\PSoC5/PWM_M.c ****         PWM_M_RT1 &= ((uint8)(~PWM_M_RT1_MASK));
 109:Generated_Source\PSoC5/PWM_M.c ****         PWM_M_RT1 |= PWM_M_SYNC;
 110:Generated_Source\PSoC5/PWM_M.c **** 
 111:Generated_Source\PSoC5/PWM_M.c ****         /*Enable DSI Sync all all inputs of the PWM*/
 112:Generated_Source\PSoC5/PWM_M.c ****         PWM_M_RT1 &= ((uint8)(~PWM_M_SYNCDSI_MASK));
 113:Generated_Source\PSoC5/PWM_M.c ****         PWM_M_RT1 |= PWM_M_SYNCDSI_EN;
 114:Generated_Source\PSoC5/PWM_M.c **** 
 115:Generated_Source\PSoC5/PWM_M.c ****     #elif (PWM_M_UseControl)
 116:Generated_Source\PSoC5/PWM_M.c ****         /* Set the default compare mode defined in the parameter */
 117:Generated_Source\PSoC5/PWM_M.c ****         ctrl = PWM_M_CONTROL & ((uint8)(~PWM_M_CTRL_CMPMODE2_MASK)) &
  88              		.loc 1 117 0
  89 0006 104B     		ldr	r3, .L6
  90 0008 1B78     		ldrb	r3, [r3]
  91 000a DBB2     		uxtb	r3, r3
  92 000c 23F03F03 		bic	r3, r3, #63
  93 0010 FB71     		strb	r3, [r7, #7]
 118:Generated_Source\PSoC5/PWM_M.c ****                 ((uint8)(~PWM_M_CTRL_CMPMODE1_MASK));
 119:Generated_Source\PSoC5/PWM_M.c ****         PWM_M_CONTROL = ctrl | PWM_M_DEFAULT_COMPARE2_MODE |
  94              		.loc 1 119 0
  95 0012 0D4A     		ldr	r2, .L6
  96 0014 FB79     		ldrb	r3, [r7, #7]
  97 0016 43F02003 		orr	r3, r3, #32
  98 001a DBB2     		uxtb	r3, r3
  99 001c 1370     		strb	r3, [r2]
 120:Generated_Source\PSoC5/PWM_M.c ****                                    PWM_M_DEFAULT_COMPARE1_MODE;
 121:Generated_Source\PSoC5/PWM_M.c ****     #endif /* (PWM_M_UsingFixedFunction) */
 122:Generated_Source\PSoC5/PWM_M.c **** 
 123:Generated_Source\PSoC5/PWM_M.c ****     #if (!PWM_M_UsingFixedFunction)
 124:Generated_Source\PSoC5/PWM_M.c ****         #if (PWM_M_Resolution == 8)
 125:Generated_Source\PSoC5/PWM_M.c ****             /* Set FIFO 0 to 1 byte register for period*/
 126:Generated_Source\PSoC5/PWM_M.c ****             PWM_M_AUX_CONTROLDP0 |= (PWM_M_AUX_CTRL_FIFO0_CLR);
 100              		.loc 1 126 0
 101 001e 0B4A     		ldr	r2, .L6+4
 102 0020 0A4B     		ldr	r3, .L6+4
ARM GAS  C:\Users\User\AppData\Local\Temp\cc25xQjQ.s 			page 5


 103 0022 1B78     		ldrb	r3, [r3]
 104 0024 DBB2     		uxtb	r3, r3
 105 0026 43F00103 		orr	r3, r3, #1
 106 002a DBB2     		uxtb	r3, r3
 107 002c 1370     		strb	r3, [r2]
 127:Generated_Source\PSoC5/PWM_M.c ****         #else /* (PWM_M_Resolution == 16)*/
 128:Generated_Source\PSoC5/PWM_M.c ****             /* Set FIFO 0 to 1 byte register for period */
 129:Generated_Source\PSoC5/PWM_M.c ****             PWM_M_AUX_CONTROLDP0 |= (PWM_M_AUX_CTRL_FIFO0_CLR);
 130:Generated_Source\PSoC5/PWM_M.c ****             PWM_M_AUX_CONTROLDP1 |= (PWM_M_AUX_CTRL_FIFO0_CLR);
 131:Generated_Source\PSoC5/PWM_M.c ****         #endif /* (PWM_M_Resolution == 8) */
 132:Generated_Source\PSoC5/PWM_M.c **** 
 133:Generated_Source\PSoC5/PWM_M.c ****         PWM_M_WriteCounter(PWM_M_INIT_PERIOD_VALUE);
 108              		.loc 1 133 0
 109 002e F920     		movs	r0, #249
 110 0030 FFF7FEFF 		bl	PWM_M_WriteCounter
 134:Generated_Source\PSoC5/PWM_M.c ****     #endif /* (!PWM_M_UsingFixedFunction) */
 135:Generated_Source\PSoC5/PWM_M.c **** 
 136:Generated_Source\PSoC5/PWM_M.c ****     PWM_M_WritePeriod(PWM_M_INIT_PERIOD_VALUE);
 111              		.loc 1 136 0
 112 0034 F920     		movs	r0, #249
 113 0036 FFF7FEFF 		bl	PWM_M_WritePeriod
 137:Generated_Source\PSoC5/PWM_M.c **** 
 138:Generated_Source\PSoC5/PWM_M.c ****         #if (PWM_M_UseOneCompareMode)
 139:Generated_Source\PSoC5/PWM_M.c ****             PWM_M_WriteCompare(PWM_M_INIT_COMPARE_VALUE1);
 114              		.loc 1 139 0
 115 003a C820     		movs	r0, #200
 116 003c FFF7FEFF 		bl	PWM_M_WriteCompare
 140:Generated_Source\PSoC5/PWM_M.c ****         #else
 141:Generated_Source\PSoC5/PWM_M.c ****             PWM_M_WriteCompare1(PWM_M_INIT_COMPARE_VALUE1);
 142:Generated_Source\PSoC5/PWM_M.c ****             PWM_M_WriteCompare2(PWM_M_INIT_COMPARE_VALUE2);
 143:Generated_Source\PSoC5/PWM_M.c ****         #endif /* (PWM_M_UseOneCompareMode) */
 144:Generated_Source\PSoC5/PWM_M.c **** 
 145:Generated_Source\PSoC5/PWM_M.c ****         #if (PWM_M_KillModeMinTime)
 146:Generated_Source\PSoC5/PWM_M.c ****             PWM_M_WriteKillTime(PWM_M_MinimumKillTime);
 147:Generated_Source\PSoC5/PWM_M.c ****         #endif /* (PWM_M_KillModeMinTime) */
 148:Generated_Source\PSoC5/PWM_M.c **** 
 149:Generated_Source\PSoC5/PWM_M.c ****         #if (PWM_M_DeadBandUsed)
 150:Generated_Source\PSoC5/PWM_M.c ****             PWM_M_WriteDeadTime(PWM_M_INIT_DEAD_TIME);
 151:Generated_Source\PSoC5/PWM_M.c ****         #endif /* (PWM_M_DeadBandUsed) */
 152:Generated_Source\PSoC5/PWM_M.c **** 
 153:Generated_Source\PSoC5/PWM_M.c ****     #if (PWM_M_UseStatus || PWM_M_UsingFixedFunction)
 154:Generated_Source\PSoC5/PWM_M.c ****         PWM_M_SetInterruptMode(PWM_M_INIT_INTERRUPTS_MODE);
 155:Generated_Source\PSoC5/PWM_M.c ****     #endif /* (PWM_M_UseStatus || PWM_M_UsingFixedFunction) */
 156:Generated_Source\PSoC5/PWM_M.c **** 
 157:Generated_Source\PSoC5/PWM_M.c ****     #if (PWM_M_UsingFixedFunction)
 158:Generated_Source\PSoC5/PWM_M.c ****         /* Globally Enable the Fixed Function Block chosen */
 159:Generated_Source\PSoC5/PWM_M.c ****         PWM_M_GLOBAL_ENABLE |= PWM_M_BLOCK_EN_MASK;
 160:Generated_Source\PSoC5/PWM_M.c ****         /* Set the Interrupt source to come from the status register */
 161:Generated_Source\PSoC5/PWM_M.c ****         PWM_M_CONTROL2 |= PWM_M_CTRL2_IRQ_SEL;
 162:Generated_Source\PSoC5/PWM_M.c ****     #else
 163:Generated_Source\PSoC5/PWM_M.c ****         #if(PWM_M_UseStatus)
 164:Generated_Source\PSoC5/PWM_M.c **** 
 165:Generated_Source\PSoC5/PWM_M.c ****             /* CyEnterCriticalRegion and CyExitCriticalRegion are used to mark following region cri
 166:Generated_Source\PSoC5/PWM_M.c ****             /* Enter Critical Region*/
 167:Generated_Source\PSoC5/PWM_M.c ****             PWM_M_interruptState = CyEnterCriticalSection();
 168:Generated_Source\PSoC5/PWM_M.c ****             /* Use the interrupt output of the status register for IRQ output */
 169:Generated_Source\PSoC5/PWM_M.c ****             PWM_M_STATUS_AUX_CTRL |= PWM_M_STATUS_ACTL_INT_EN_MASK;
ARM GAS  C:\Users\User\AppData\Local\Temp\cc25xQjQ.s 			page 6


 170:Generated_Source\PSoC5/PWM_M.c **** 
 171:Generated_Source\PSoC5/PWM_M.c ****              /* Exit Critical Region*/
 172:Generated_Source\PSoC5/PWM_M.c ****             CyExitCriticalSection(PWM_M_interruptState);
 173:Generated_Source\PSoC5/PWM_M.c **** 
 174:Generated_Source\PSoC5/PWM_M.c ****             /* Clear the FIFO to enable the PWM_M_STATUS_FIFOFULL
 175:Generated_Source\PSoC5/PWM_M.c ****                    bit to be set on FIFO full. */
 176:Generated_Source\PSoC5/PWM_M.c ****             PWM_M_ClearFIFO();
 177:Generated_Source\PSoC5/PWM_M.c ****         #endif /* (PWM_M_UseStatus) */
 178:Generated_Source\PSoC5/PWM_M.c ****     #endif /* (PWM_M_UsingFixedFunction) */
 179:Generated_Source\PSoC5/PWM_M.c **** }
 117              		.loc 1 179 0
 118 0040 00BF     		nop
 119 0042 0837     		adds	r7, r7, #8
 120              		.cfi_def_cfa_offset 8
 121 0044 BD46     		mov	sp, r7
 122              		.cfi_def_cfa_register 13
 123              		@ sp needed
 124 0046 80BD     		pop	{r7, pc}
 125              	.L7:
 126              		.align	2
 127              	.L6:
 128 0048 7D640040 		.word	1073767549
 129 004c 9D640040 		.word	1073767581
 130              		.cfi_endproc
 131              	.LFE1:
 132              		.size	PWM_M_Init, .-PWM_M_Init
 133              		.section	.text.PWM_M_Enable,"ax",%progbits
 134              		.align	2
 135              		.global	PWM_M_Enable
 136              		.thumb
 137              		.thumb_func
 138              		.type	PWM_M_Enable, %function
 139              	PWM_M_Enable:
 140              	.LFB2:
 180:Generated_Source\PSoC5/PWM_M.c **** 
 181:Generated_Source\PSoC5/PWM_M.c **** 
 182:Generated_Source\PSoC5/PWM_M.c **** /*******************************************************************************
 183:Generated_Source\PSoC5/PWM_M.c **** * Function Name: PWM_M_Enable
 184:Generated_Source\PSoC5/PWM_M.c **** ********************************************************************************
 185:Generated_Source\PSoC5/PWM_M.c **** *
 186:Generated_Source\PSoC5/PWM_M.c **** * Summary:
 187:Generated_Source\PSoC5/PWM_M.c **** *  Enables the PWM block operation
 188:Generated_Source\PSoC5/PWM_M.c **** *
 189:Generated_Source\PSoC5/PWM_M.c **** * Parameters:
 190:Generated_Source\PSoC5/PWM_M.c **** *  None
 191:Generated_Source\PSoC5/PWM_M.c **** *
 192:Generated_Source\PSoC5/PWM_M.c **** * Return:
 193:Generated_Source\PSoC5/PWM_M.c **** *  None
 194:Generated_Source\PSoC5/PWM_M.c **** *
 195:Generated_Source\PSoC5/PWM_M.c **** * Side Effects:
 196:Generated_Source\PSoC5/PWM_M.c **** *  This works only if software enable mode is chosen
 197:Generated_Source\PSoC5/PWM_M.c **** *
 198:Generated_Source\PSoC5/PWM_M.c **** *******************************************************************************/
 199:Generated_Source\PSoC5/PWM_M.c **** void PWM_M_Enable(void) 
 200:Generated_Source\PSoC5/PWM_M.c **** {
 141              		.loc 1 200 0
 142              		.cfi_startproc
ARM GAS  C:\Users\User\AppData\Local\Temp\cc25xQjQ.s 			page 7


 143              		@ args = 0, pretend = 0, frame = 0
 144              		@ frame_needed = 1, uses_anonymous_args = 0
 145              		@ link register save eliminated.
 146 0000 80B4     		push	{r7}
 147              		.cfi_def_cfa_offset 4
 148              		.cfi_offset 7, -4
 149 0002 00AF     		add	r7, sp, #0
 150              		.cfi_def_cfa_register 7
 201:Generated_Source\PSoC5/PWM_M.c ****     /* Globally Enable the Fixed Function Block chosen */
 202:Generated_Source\PSoC5/PWM_M.c ****     #if (PWM_M_UsingFixedFunction)
 203:Generated_Source\PSoC5/PWM_M.c ****         PWM_M_GLOBAL_ENABLE |= PWM_M_BLOCK_EN_MASK;
 204:Generated_Source\PSoC5/PWM_M.c ****         PWM_M_GLOBAL_STBY_ENABLE |= PWM_M_BLOCK_STBY_EN_MASK;
 205:Generated_Source\PSoC5/PWM_M.c ****     #endif /* (PWM_M_UsingFixedFunction) */
 206:Generated_Source\PSoC5/PWM_M.c **** 
 207:Generated_Source\PSoC5/PWM_M.c ****     /* Enable the PWM from the control register  */
 208:Generated_Source\PSoC5/PWM_M.c ****     #if (PWM_M_UseControl || PWM_M_UsingFixedFunction)
 209:Generated_Source\PSoC5/PWM_M.c ****         PWM_M_CONTROL |= PWM_M_CTRL_ENABLE;
 151              		.loc 1 209 0
 152 0004 054A     		ldr	r2, .L9
 153 0006 054B     		ldr	r3, .L9
 154 0008 1B78     		ldrb	r3, [r3]
 155 000a DBB2     		uxtb	r3, r3
 156 000c 63F07F03 		orn	r3, r3, #127
 157 0010 DBB2     		uxtb	r3, r3
 158 0012 1370     		strb	r3, [r2]
 210:Generated_Source\PSoC5/PWM_M.c ****     #endif /* (PWM_M_UseControl || PWM_M_UsingFixedFunction) */
 211:Generated_Source\PSoC5/PWM_M.c **** }
 159              		.loc 1 211 0
 160 0014 00BF     		nop
 161 0016 BD46     		mov	sp, r7
 162              		.cfi_def_cfa_register 13
 163              		@ sp needed
 164 0018 80BC     		pop	{r7}
 165              		.cfi_restore 7
 166              		.cfi_def_cfa_offset 0
 167 001a 7047     		bx	lr
 168              	.L10:
 169              		.align	2
 170              	.L9:
 171 001c 7D640040 		.word	1073767549
 172              		.cfi_endproc
 173              	.LFE2:
 174              		.size	PWM_M_Enable, .-PWM_M_Enable
 175              		.section	.text.PWM_M_Stop,"ax",%progbits
 176              		.align	2
 177              		.global	PWM_M_Stop
 178              		.thumb
 179              		.thumb_func
 180              		.type	PWM_M_Stop, %function
 181              	PWM_M_Stop:
 182              	.LFB3:
 212:Generated_Source\PSoC5/PWM_M.c **** 
 213:Generated_Source\PSoC5/PWM_M.c **** 
 214:Generated_Source\PSoC5/PWM_M.c **** /*******************************************************************************
 215:Generated_Source\PSoC5/PWM_M.c **** * Function Name: PWM_M_Stop
 216:Generated_Source\PSoC5/PWM_M.c **** ********************************************************************************
 217:Generated_Source\PSoC5/PWM_M.c **** *
ARM GAS  C:\Users\User\AppData\Local\Temp\cc25xQjQ.s 			page 8


 218:Generated_Source\PSoC5/PWM_M.c **** * Summary:
 219:Generated_Source\PSoC5/PWM_M.c **** *  The stop function halts the PWM, but does not change any modes or disable
 220:Generated_Source\PSoC5/PWM_M.c **** *  interrupts.
 221:Generated_Source\PSoC5/PWM_M.c **** *
 222:Generated_Source\PSoC5/PWM_M.c **** * Parameters:
 223:Generated_Source\PSoC5/PWM_M.c **** *  None
 224:Generated_Source\PSoC5/PWM_M.c **** *
 225:Generated_Source\PSoC5/PWM_M.c **** * Return:
 226:Generated_Source\PSoC5/PWM_M.c **** *  None
 227:Generated_Source\PSoC5/PWM_M.c **** *
 228:Generated_Source\PSoC5/PWM_M.c **** * Side Effects:
 229:Generated_Source\PSoC5/PWM_M.c **** *  If the Enable mode is set to Hardware only then this function
 230:Generated_Source\PSoC5/PWM_M.c **** *  has no effect on the operation of the PWM
 231:Generated_Source\PSoC5/PWM_M.c **** *
 232:Generated_Source\PSoC5/PWM_M.c **** *******************************************************************************/
 233:Generated_Source\PSoC5/PWM_M.c **** void PWM_M_Stop(void) 
 234:Generated_Source\PSoC5/PWM_M.c **** {
 183              		.loc 1 234 0
 184              		.cfi_startproc
 185              		@ args = 0, pretend = 0, frame = 0
 186              		@ frame_needed = 1, uses_anonymous_args = 0
 187              		@ link register save eliminated.
 188 0000 80B4     		push	{r7}
 189              		.cfi_def_cfa_offset 4
 190              		.cfi_offset 7, -4
 191 0002 00AF     		add	r7, sp, #0
 192              		.cfi_def_cfa_register 7
 235:Generated_Source\PSoC5/PWM_M.c ****     #if (PWM_M_UseControl || PWM_M_UsingFixedFunction)
 236:Generated_Source\PSoC5/PWM_M.c ****         PWM_M_CONTROL &= ((uint8)(~PWM_M_CTRL_ENABLE));
 193              		.loc 1 236 0
 194 0004 054A     		ldr	r2, .L12
 195 0006 054B     		ldr	r3, .L12
 196 0008 1B78     		ldrb	r3, [r3]
 197 000a DBB2     		uxtb	r3, r3
 198 000c 03F07F03 		and	r3, r3, #127
 199 0010 DBB2     		uxtb	r3, r3
 200 0012 1370     		strb	r3, [r2]
 237:Generated_Source\PSoC5/PWM_M.c ****     #endif /* (PWM_M_UseControl || PWM_M_UsingFixedFunction) */
 238:Generated_Source\PSoC5/PWM_M.c **** 
 239:Generated_Source\PSoC5/PWM_M.c ****     /* Globally disable the Fixed Function Block chosen */
 240:Generated_Source\PSoC5/PWM_M.c ****     #if (PWM_M_UsingFixedFunction)
 241:Generated_Source\PSoC5/PWM_M.c ****         PWM_M_GLOBAL_ENABLE &= ((uint8)(~PWM_M_BLOCK_EN_MASK));
 242:Generated_Source\PSoC5/PWM_M.c ****         PWM_M_GLOBAL_STBY_ENABLE &= ((uint8)(~PWM_M_BLOCK_STBY_EN_MASK));
 243:Generated_Source\PSoC5/PWM_M.c ****     #endif /* (PWM_M_UsingFixedFunction) */
 244:Generated_Source\PSoC5/PWM_M.c **** }
 201              		.loc 1 244 0
 202 0014 00BF     		nop
 203 0016 BD46     		mov	sp, r7
 204              		.cfi_def_cfa_register 13
 205              		@ sp needed
 206 0018 80BC     		pop	{r7}
 207              		.cfi_restore 7
 208              		.cfi_def_cfa_offset 0
 209 001a 7047     		bx	lr
 210              	.L13:
 211              		.align	2
 212              	.L12:
ARM GAS  C:\Users\User\AppData\Local\Temp\cc25xQjQ.s 			page 9


 213 001c 7D640040 		.word	1073767549
 214              		.cfi_endproc
 215              	.LFE3:
 216              		.size	PWM_M_Stop, .-PWM_M_Stop
 217              		.section	.text.PWM_M_WriteCounter,"ax",%progbits
 218              		.align	2
 219              		.global	PWM_M_WriteCounter
 220              		.thumb
 221              		.thumb_func
 222              		.type	PWM_M_WriteCounter, %function
 223              	PWM_M_WriteCounter:
 224              	.LFB4:
 245:Generated_Source\PSoC5/PWM_M.c **** 
 246:Generated_Source\PSoC5/PWM_M.c **** #if (PWM_M_UseOneCompareMode)
 247:Generated_Source\PSoC5/PWM_M.c ****     #if (PWM_M_CompareMode1SW)
 248:Generated_Source\PSoC5/PWM_M.c **** 
 249:Generated_Source\PSoC5/PWM_M.c **** 
 250:Generated_Source\PSoC5/PWM_M.c ****         /*******************************************************************************
 251:Generated_Source\PSoC5/PWM_M.c ****         * Function Name: PWM_M_SetCompareMode
 252:Generated_Source\PSoC5/PWM_M.c ****         ********************************************************************************
 253:Generated_Source\PSoC5/PWM_M.c ****         *
 254:Generated_Source\PSoC5/PWM_M.c ****         * Summary:
 255:Generated_Source\PSoC5/PWM_M.c ****         *  This function writes the Compare Mode for the pwm output when in Dither mode,
 256:Generated_Source\PSoC5/PWM_M.c ****         *  Center Align Mode or One Output Mode.
 257:Generated_Source\PSoC5/PWM_M.c ****         *
 258:Generated_Source\PSoC5/PWM_M.c ****         * Parameters:
 259:Generated_Source\PSoC5/PWM_M.c ****         *  comparemode:  The new compare mode for the PWM output. Use the compare types
 260:Generated_Source\PSoC5/PWM_M.c ****         *                defined in the H file as input arguments.
 261:Generated_Source\PSoC5/PWM_M.c ****         *
 262:Generated_Source\PSoC5/PWM_M.c ****         * Return:
 263:Generated_Source\PSoC5/PWM_M.c ****         *  None
 264:Generated_Source\PSoC5/PWM_M.c ****         *
 265:Generated_Source\PSoC5/PWM_M.c ****         *******************************************************************************/
 266:Generated_Source\PSoC5/PWM_M.c ****         void PWM_M_SetCompareMode(uint8 comparemode) 
 267:Generated_Source\PSoC5/PWM_M.c ****         {
 268:Generated_Source\PSoC5/PWM_M.c ****             #if(PWM_M_UsingFixedFunction)
 269:Generated_Source\PSoC5/PWM_M.c **** 
 270:Generated_Source\PSoC5/PWM_M.c ****                 #if(0 != PWM_M_CTRL_CMPMODE1_SHIFT)
 271:Generated_Source\PSoC5/PWM_M.c ****                     uint8 comparemodemasked = ((uint8)((uint8)comparemode << PWM_M_CTRL_CMPMODE1_SH
 272:Generated_Source\PSoC5/PWM_M.c ****                 #else
 273:Generated_Source\PSoC5/PWM_M.c ****                     uint8 comparemodemasked = comparemode;
 274:Generated_Source\PSoC5/PWM_M.c ****                 #endif /* (0 != PWM_M_CTRL_CMPMODE1_SHIFT) */
 275:Generated_Source\PSoC5/PWM_M.c **** 
 276:Generated_Source\PSoC5/PWM_M.c ****                 PWM_M_CONTROL3 &= ((uint8)(~PWM_M_CTRL_CMPMODE1_MASK)); /*Clear Existing Data */
 277:Generated_Source\PSoC5/PWM_M.c ****                 PWM_M_CONTROL3 |= comparemodemasked;
 278:Generated_Source\PSoC5/PWM_M.c **** 
 279:Generated_Source\PSoC5/PWM_M.c ****             #elif (PWM_M_UseControl)
 280:Generated_Source\PSoC5/PWM_M.c **** 
 281:Generated_Source\PSoC5/PWM_M.c ****                 #if(0 != PWM_M_CTRL_CMPMODE1_SHIFT)
 282:Generated_Source\PSoC5/PWM_M.c ****                     uint8 comparemode1masked = ((uint8)((uint8)comparemode << PWM_M_CTRL_CMPMODE1_S
 283:Generated_Source\PSoC5/PWM_M.c ****                                                 PWM_M_CTRL_CMPMODE1_MASK;
 284:Generated_Source\PSoC5/PWM_M.c ****                 #else
 285:Generated_Source\PSoC5/PWM_M.c ****                     uint8 comparemode1masked = comparemode & PWM_M_CTRL_CMPMODE1_MASK;
 286:Generated_Source\PSoC5/PWM_M.c ****                 #endif /* (0 != PWM_M_CTRL_CMPMODE1_SHIFT) */
 287:Generated_Source\PSoC5/PWM_M.c **** 
 288:Generated_Source\PSoC5/PWM_M.c ****                 #if(0 != PWM_M_CTRL_CMPMODE2_SHIFT)
 289:Generated_Source\PSoC5/PWM_M.c ****                     uint8 comparemode2masked = ((uint8)((uint8)comparemode << PWM_M_CTRL_CMPMODE2_S
ARM GAS  C:\Users\User\AppData\Local\Temp\cc25xQjQ.s 			page 10


 290:Generated_Source\PSoC5/PWM_M.c ****                                                PWM_M_CTRL_CMPMODE2_MASK;
 291:Generated_Source\PSoC5/PWM_M.c ****                 #else
 292:Generated_Source\PSoC5/PWM_M.c ****                     uint8 comparemode2masked = comparemode & PWM_M_CTRL_CMPMODE2_MASK;
 293:Generated_Source\PSoC5/PWM_M.c ****                 #endif /* (0 != PWM_M_CTRL_CMPMODE2_SHIFT) */
 294:Generated_Source\PSoC5/PWM_M.c **** 
 295:Generated_Source\PSoC5/PWM_M.c ****                 /*Clear existing mode */
 296:Generated_Source\PSoC5/PWM_M.c ****                 PWM_M_CONTROL &= ((uint8)(~(PWM_M_CTRL_CMPMODE1_MASK |
 297:Generated_Source\PSoC5/PWM_M.c ****                                             PWM_M_CTRL_CMPMODE2_MASK)));
 298:Generated_Source\PSoC5/PWM_M.c ****                 PWM_M_CONTROL |= (comparemode1masked | comparemode2masked);
 299:Generated_Source\PSoC5/PWM_M.c **** 
 300:Generated_Source\PSoC5/PWM_M.c ****             #else
 301:Generated_Source\PSoC5/PWM_M.c ****                 uint8 temp = comparemode;
 302:Generated_Source\PSoC5/PWM_M.c ****             #endif /* (PWM_M_UsingFixedFunction) */
 303:Generated_Source\PSoC5/PWM_M.c ****         }
 304:Generated_Source\PSoC5/PWM_M.c ****     #endif /* PWM_M_CompareMode1SW */
 305:Generated_Source\PSoC5/PWM_M.c **** 
 306:Generated_Source\PSoC5/PWM_M.c **** #else /* UseOneCompareMode */
 307:Generated_Source\PSoC5/PWM_M.c **** 
 308:Generated_Source\PSoC5/PWM_M.c ****     #if (PWM_M_CompareMode1SW)
 309:Generated_Source\PSoC5/PWM_M.c **** 
 310:Generated_Source\PSoC5/PWM_M.c **** 
 311:Generated_Source\PSoC5/PWM_M.c ****         /*******************************************************************************
 312:Generated_Source\PSoC5/PWM_M.c ****         * Function Name: PWM_M_SetCompareMode1
 313:Generated_Source\PSoC5/PWM_M.c ****         ********************************************************************************
 314:Generated_Source\PSoC5/PWM_M.c ****         *
 315:Generated_Source\PSoC5/PWM_M.c ****         * Summary:
 316:Generated_Source\PSoC5/PWM_M.c ****         *  This function writes the Compare Mode for the pwm or pwm1 output
 317:Generated_Source\PSoC5/PWM_M.c ****         *
 318:Generated_Source\PSoC5/PWM_M.c ****         * Parameters:
 319:Generated_Source\PSoC5/PWM_M.c ****         *  comparemode:  The new compare mode for the PWM output. Use the compare types
 320:Generated_Source\PSoC5/PWM_M.c ****         *                defined in the H file as input arguments.
 321:Generated_Source\PSoC5/PWM_M.c ****         *
 322:Generated_Source\PSoC5/PWM_M.c ****         * Return:
 323:Generated_Source\PSoC5/PWM_M.c ****         *  None
 324:Generated_Source\PSoC5/PWM_M.c ****         *
 325:Generated_Source\PSoC5/PWM_M.c ****         *******************************************************************************/
 326:Generated_Source\PSoC5/PWM_M.c ****         void PWM_M_SetCompareMode1(uint8 comparemode) 
 327:Generated_Source\PSoC5/PWM_M.c ****         {
 328:Generated_Source\PSoC5/PWM_M.c ****             #if(0 != PWM_M_CTRL_CMPMODE1_SHIFT)
 329:Generated_Source\PSoC5/PWM_M.c ****                 uint8 comparemodemasked = ((uint8)((uint8)comparemode << PWM_M_CTRL_CMPMODE1_SHIFT)
 330:Generated_Source\PSoC5/PWM_M.c ****                                            PWM_M_CTRL_CMPMODE1_MASK;
 331:Generated_Source\PSoC5/PWM_M.c ****             #else
 332:Generated_Source\PSoC5/PWM_M.c ****                 uint8 comparemodemasked = comparemode & PWM_M_CTRL_CMPMODE1_MASK;
 333:Generated_Source\PSoC5/PWM_M.c ****             #endif /* (0 != PWM_M_CTRL_CMPMODE1_SHIFT) */
 334:Generated_Source\PSoC5/PWM_M.c **** 
 335:Generated_Source\PSoC5/PWM_M.c ****             #if (PWM_M_UseControl)
 336:Generated_Source\PSoC5/PWM_M.c ****                 PWM_M_CONTROL &= ((uint8)(~PWM_M_CTRL_CMPMODE1_MASK)); /*Clear existing mode */
 337:Generated_Source\PSoC5/PWM_M.c ****                 PWM_M_CONTROL |= comparemodemasked;
 338:Generated_Source\PSoC5/PWM_M.c ****             #endif /* (PWM_M_UseControl) */
 339:Generated_Source\PSoC5/PWM_M.c ****         }
 340:Generated_Source\PSoC5/PWM_M.c ****     #endif /* PWM_M_CompareMode1SW */
 341:Generated_Source\PSoC5/PWM_M.c **** 
 342:Generated_Source\PSoC5/PWM_M.c **** #if (PWM_M_CompareMode2SW)
 343:Generated_Source\PSoC5/PWM_M.c **** 
 344:Generated_Source\PSoC5/PWM_M.c **** 
 345:Generated_Source\PSoC5/PWM_M.c ****     /*******************************************************************************
 346:Generated_Source\PSoC5/PWM_M.c ****     * Function Name: PWM_M_SetCompareMode2
ARM GAS  C:\Users\User\AppData\Local\Temp\cc25xQjQ.s 			page 11


 347:Generated_Source\PSoC5/PWM_M.c ****     ********************************************************************************
 348:Generated_Source\PSoC5/PWM_M.c ****     *
 349:Generated_Source\PSoC5/PWM_M.c ****     * Summary:
 350:Generated_Source\PSoC5/PWM_M.c ****     *  This function writes the Compare Mode for the pwm or pwm2 output
 351:Generated_Source\PSoC5/PWM_M.c ****     *
 352:Generated_Source\PSoC5/PWM_M.c ****     * Parameters:
 353:Generated_Source\PSoC5/PWM_M.c ****     *  comparemode:  The new compare mode for the PWM output. Use the compare types
 354:Generated_Source\PSoC5/PWM_M.c ****     *                defined in the H file as input arguments.
 355:Generated_Source\PSoC5/PWM_M.c ****     *
 356:Generated_Source\PSoC5/PWM_M.c ****     * Return:
 357:Generated_Source\PSoC5/PWM_M.c ****     *  None
 358:Generated_Source\PSoC5/PWM_M.c ****     *
 359:Generated_Source\PSoC5/PWM_M.c ****     *******************************************************************************/
 360:Generated_Source\PSoC5/PWM_M.c ****     void PWM_M_SetCompareMode2(uint8 comparemode) 
 361:Generated_Source\PSoC5/PWM_M.c ****     {
 362:Generated_Source\PSoC5/PWM_M.c **** 
 363:Generated_Source\PSoC5/PWM_M.c ****         #if(0 != PWM_M_CTRL_CMPMODE2_SHIFT)
 364:Generated_Source\PSoC5/PWM_M.c ****             uint8 comparemodemasked = ((uint8)((uint8)comparemode << PWM_M_CTRL_CMPMODE2_SHIFT)) &
 365:Generated_Source\PSoC5/PWM_M.c ****                                                  PWM_M_CTRL_CMPMODE2_MASK;
 366:Generated_Source\PSoC5/PWM_M.c ****         #else
 367:Generated_Source\PSoC5/PWM_M.c ****             uint8 comparemodemasked = comparemode & PWM_M_CTRL_CMPMODE2_MASK;
 368:Generated_Source\PSoC5/PWM_M.c ****         #endif /* (0 != PWM_M_CTRL_CMPMODE2_SHIFT) */
 369:Generated_Source\PSoC5/PWM_M.c **** 
 370:Generated_Source\PSoC5/PWM_M.c ****         #if (PWM_M_UseControl)
 371:Generated_Source\PSoC5/PWM_M.c ****             PWM_M_CONTROL &= ((uint8)(~PWM_M_CTRL_CMPMODE2_MASK)); /*Clear existing mode */
 372:Generated_Source\PSoC5/PWM_M.c ****             PWM_M_CONTROL |= comparemodemasked;
 373:Generated_Source\PSoC5/PWM_M.c ****         #endif /* (PWM_M_UseControl) */
 374:Generated_Source\PSoC5/PWM_M.c ****     }
 375:Generated_Source\PSoC5/PWM_M.c ****     #endif /*PWM_M_CompareMode2SW */
 376:Generated_Source\PSoC5/PWM_M.c **** 
 377:Generated_Source\PSoC5/PWM_M.c **** #endif /* UseOneCompareMode */
 378:Generated_Source\PSoC5/PWM_M.c **** 
 379:Generated_Source\PSoC5/PWM_M.c **** 
 380:Generated_Source\PSoC5/PWM_M.c **** #if (!PWM_M_UsingFixedFunction)
 381:Generated_Source\PSoC5/PWM_M.c **** 
 382:Generated_Source\PSoC5/PWM_M.c **** 
 383:Generated_Source\PSoC5/PWM_M.c ****     /*******************************************************************************
 384:Generated_Source\PSoC5/PWM_M.c ****     * Function Name: PWM_M_WriteCounter
 385:Generated_Source\PSoC5/PWM_M.c ****     ********************************************************************************
 386:Generated_Source\PSoC5/PWM_M.c ****     *
 387:Generated_Source\PSoC5/PWM_M.c ****     * Summary:
 388:Generated_Source\PSoC5/PWM_M.c ****     *  Writes a new counter value directly to the counter register. This will be
 389:Generated_Source\PSoC5/PWM_M.c ****     *  implemented for that currently running period and only that period. This API
 390:Generated_Source\PSoC5/PWM_M.c ****     *  is valid only for UDB implementation and not available for fixed function
 391:Generated_Source\PSoC5/PWM_M.c ****     *  PWM implementation.
 392:Generated_Source\PSoC5/PWM_M.c ****     *
 393:Generated_Source\PSoC5/PWM_M.c ****     * Parameters:
 394:Generated_Source\PSoC5/PWM_M.c ****     *  counter:  The period new period counter value.
 395:Generated_Source\PSoC5/PWM_M.c ****     *
 396:Generated_Source\PSoC5/PWM_M.c ****     * Return:
 397:Generated_Source\PSoC5/PWM_M.c ****     *  None
 398:Generated_Source\PSoC5/PWM_M.c ****     *
 399:Generated_Source\PSoC5/PWM_M.c ****     * Side Effects:
 400:Generated_Source\PSoC5/PWM_M.c ****     *  The PWM Period will be reloaded when a counter value will be a zero
 401:Generated_Source\PSoC5/PWM_M.c ****     *
 402:Generated_Source\PSoC5/PWM_M.c ****     *******************************************************************************/
 403:Generated_Source\PSoC5/PWM_M.c ****     void PWM_M_WriteCounter(uint8 counter) \
ARM GAS  C:\Users\User\AppData\Local\Temp\cc25xQjQ.s 			page 12


 404:Generated_Source\PSoC5/PWM_M.c ****                                        
 405:Generated_Source\PSoC5/PWM_M.c ****     {
 225              		.loc 1 405 0
 226              		.cfi_startproc
 227              		@ args = 0, pretend = 0, frame = 8
 228              		@ frame_needed = 1, uses_anonymous_args = 0
 229              		@ link register save eliminated.
 230 0000 80B4     		push	{r7}
 231              		.cfi_def_cfa_offset 4
 232              		.cfi_offset 7, -4
 233 0002 83B0     		sub	sp, sp, #12
 234              		.cfi_def_cfa_offset 16
 235 0004 00AF     		add	r7, sp, #0
 236              		.cfi_def_cfa_register 7
 237 0006 0346     		mov	r3, r0
 238 0008 FB71     		strb	r3, [r7, #7]
 406:Generated_Source\PSoC5/PWM_M.c ****         CY_SET_REG8(PWM_M_COUNTER_LSB_PTR, counter);
 239              		.loc 1 406 0
 240 000a 044A     		ldr	r2, .L15
 241 000c FB79     		ldrb	r3, [r7, #7]
 242 000e 1370     		strb	r3, [r2]
 407:Generated_Source\PSoC5/PWM_M.c ****     }
 243              		.loc 1 407 0
 244 0010 00BF     		nop
 245 0012 0C37     		adds	r7, r7, #12
 246              		.cfi_def_cfa_offset 4
 247 0014 BD46     		mov	sp, r7
 248              		.cfi_def_cfa_register 13
 249              		@ sp needed
 250 0016 80BC     		pop	{r7}
 251              		.cfi_restore 7
 252              		.cfi_def_cfa_offset 0
 253 0018 7047     		bx	lr
 254              	.L16:
 255 001a 00BF     		.align	2
 256              	.L15:
 257 001c 0D640040 		.word	1073767437
 258              		.cfi_endproc
 259              	.LFE4:
 260              		.size	PWM_M_WriteCounter, .-PWM_M_WriteCounter
 261              		.section	.text.PWM_M_ReadCounter,"ax",%progbits
 262              		.align	2
 263              		.global	PWM_M_ReadCounter
 264              		.thumb
 265              		.thumb_func
 266              		.type	PWM_M_ReadCounter, %function
 267              	PWM_M_ReadCounter:
 268              	.LFB5:
 408:Generated_Source\PSoC5/PWM_M.c **** 
 409:Generated_Source\PSoC5/PWM_M.c **** 
 410:Generated_Source\PSoC5/PWM_M.c ****     /*******************************************************************************
 411:Generated_Source\PSoC5/PWM_M.c ****     * Function Name: PWM_M_ReadCounter
 412:Generated_Source\PSoC5/PWM_M.c ****     ********************************************************************************
 413:Generated_Source\PSoC5/PWM_M.c ****     *
 414:Generated_Source\PSoC5/PWM_M.c ****     * Summary:
 415:Generated_Source\PSoC5/PWM_M.c ****     *  This function returns the current value of the counter.  It doesn't matter
 416:Generated_Source\PSoC5/PWM_M.c ****     *  if the counter is enabled or running.
ARM GAS  C:\Users\User\AppData\Local\Temp\cc25xQjQ.s 			page 13


 417:Generated_Source\PSoC5/PWM_M.c ****     *
 418:Generated_Source\PSoC5/PWM_M.c ****     * Parameters:
 419:Generated_Source\PSoC5/PWM_M.c ****     *  None
 420:Generated_Source\PSoC5/PWM_M.c ****     *
 421:Generated_Source\PSoC5/PWM_M.c ****     * Return:
 422:Generated_Source\PSoC5/PWM_M.c ****     *  The current value of the counter.
 423:Generated_Source\PSoC5/PWM_M.c ****     *
 424:Generated_Source\PSoC5/PWM_M.c ****     *******************************************************************************/
 425:Generated_Source\PSoC5/PWM_M.c ****     uint8 PWM_M_ReadCounter(void) 
 426:Generated_Source\PSoC5/PWM_M.c ****     {
 269              		.loc 1 426 0
 270              		.cfi_startproc
 271              		@ args = 0, pretend = 0, frame = 0
 272              		@ frame_needed = 1, uses_anonymous_args = 0
 273              		@ link register save eliminated.
 274 0000 80B4     		push	{r7}
 275              		.cfi_def_cfa_offset 4
 276              		.cfi_offset 7, -4
 277 0002 00AF     		add	r7, sp, #0
 278              		.cfi_def_cfa_register 7
 427:Generated_Source\PSoC5/PWM_M.c ****         /* Force capture by reading Accumulator */
 428:Generated_Source\PSoC5/PWM_M.c ****         /* Must first do a software capture to be able to read the counter */
 429:Generated_Source\PSoC5/PWM_M.c ****         /* It is up to the user code to make sure there isn't already captured data in the FIFO */
 430:Generated_Source\PSoC5/PWM_M.c ****           (void)CY_GET_REG8(PWM_M_COUNTERCAP_LSB_PTR_8BIT);
 279              		.loc 1 430 0
 280 0004 044B     		ldr	r3, .L19
 281 0006 1B78     		ldrb	r3, [r3]
 431:Generated_Source\PSoC5/PWM_M.c **** 
 432:Generated_Source\PSoC5/PWM_M.c ****         /* Read the data from the FIFO */
 433:Generated_Source\PSoC5/PWM_M.c ****         return (CY_GET_REG8(PWM_M_CAPTURE_LSB_PTR));
 282              		.loc 1 433 0
 283 0008 044B     		ldr	r3, .L19+4
 284 000a 1B78     		ldrb	r3, [r3]
 285 000c DBB2     		uxtb	r3, r3
 434:Generated_Source\PSoC5/PWM_M.c ****     }
 286              		.loc 1 434 0
 287 000e 1846     		mov	r0, r3
 288 0010 BD46     		mov	sp, r7
 289              		.cfi_def_cfa_register 13
 290              		@ sp needed
 291 0012 80BC     		pop	{r7}
 292              		.cfi_restore 7
 293              		.cfi_def_cfa_offset 0
 294 0014 7047     		bx	lr
 295              	.L20:
 296 0016 00BF     		.align	2
 297              	.L19:
 298 0018 1D640040 		.word	1073767453
 299 001c 5D640040 		.word	1073767517
 300              		.cfi_endproc
 301              	.LFE5:
 302              		.size	PWM_M_ReadCounter, .-PWM_M_ReadCounter
 303              		.section	.text.PWM_M_WritePeriod,"ax",%progbits
 304              		.align	2
 305              		.global	PWM_M_WritePeriod
 306              		.thumb
 307              		.thumb_func
ARM GAS  C:\Users\User\AppData\Local\Temp\cc25xQjQ.s 			page 14


 308              		.type	PWM_M_WritePeriod, %function
 309              	PWM_M_WritePeriod:
 310              	.LFB6:
 435:Generated_Source\PSoC5/PWM_M.c **** 
 436:Generated_Source\PSoC5/PWM_M.c ****     #if (PWM_M_UseStatus)
 437:Generated_Source\PSoC5/PWM_M.c **** 
 438:Generated_Source\PSoC5/PWM_M.c **** 
 439:Generated_Source\PSoC5/PWM_M.c ****         /*******************************************************************************
 440:Generated_Source\PSoC5/PWM_M.c ****         * Function Name: PWM_M_ClearFIFO
 441:Generated_Source\PSoC5/PWM_M.c ****         ********************************************************************************
 442:Generated_Source\PSoC5/PWM_M.c ****         *
 443:Generated_Source\PSoC5/PWM_M.c ****         * Summary:
 444:Generated_Source\PSoC5/PWM_M.c ****         *  This function clears all capture data from the capture FIFO
 445:Generated_Source\PSoC5/PWM_M.c ****         *
 446:Generated_Source\PSoC5/PWM_M.c ****         * Parameters:
 447:Generated_Source\PSoC5/PWM_M.c ****         *  None
 448:Generated_Source\PSoC5/PWM_M.c ****         *
 449:Generated_Source\PSoC5/PWM_M.c ****         * Return:
 450:Generated_Source\PSoC5/PWM_M.c ****         *  None
 451:Generated_Source\PSoC5/PWM_M.c ****         *
 452:Generated_Source\PSoC5/PWM_M.c ****         *******************************************************************************/
 453:Generated_Source\PSoC5/PWM_M.c ****         void PWM_M_ClearFIFO(void) 
 454:Generated_Source\PSoC5/PWM_M.c ****         {
 455:Generated_Source\PSoC5/PWM_M.c ****             while(0u != (PWM_M_ReadStatusRegister() & PWM_M_STATUS_FIFONEMPTY))
 456:Generated_Source\PSoC5/PWM_M.c ****             {
 457:Generated_Source\PSoC5/PWM_M.c ****                 (void)PWM_M_ReadCapture();
 458:Generated_Source\PSoC5/PWM_M.c ****             }
 459:Generated_Source\PSoC5/PWM_M.c ****         }
 460:Generated_Source\PSoC5/PWM_M.c **** 
 461:Generated_Source\PSoC5/PWM_M.c ****     #endif /* PWM_M_UseStatus */
 462:Generated_Source\PSoC5/PWM_M.c **** 
 463:Generated_Source\PSoC5/PWM_M.c **** #endif /* !PWM_M_UsingFixedFunction */
 464:Generated_Source\PSoC5/PWM_M.c **** 
 465:Generated_Source\PSoC5/PWM_M.c **** 
 466:Generated_Source\PSoC5/PWM_M.c **** /*******************************************************************************
 467:Generated_Source\PSoC5/PWM_M.c **** * Function Name: PWM_M_WritePeriod
 468:Generated_Source\PSoC5/PWM_M.c **** ********************************************************************************
 469:Generated_Source\PSoC5/PWM_M.c **** *
 470:Generated_Source\PSoC5/PWM_M.c **** * Summary:
 471:Generated_Source\PSoC5/PWM_M.c **** *  This function is used to change the period of the counter.  The new period
 472:Generated_Source\PSoC5/PWM_M.c **** *  will be loaded the next time terminal count is detected.
 473:Generated_Source\PSoC5/PWM_M.c **** *
 474:Generated_Source\PSoC5/PWM_M.c **** * Parameters:
 475:Generated_Source\PSoC5/PWM_M.c **** *  period:  Period value. May be between 1 and (2^Resolution)-1.  A value of 0
 476:Generated_Source\PSoC5/PWM_M.c **** *           will result in the counter remaining at zero.
 477:Generated_Source\PSoC5/PWM_M.c **** *
 478:Generated_Source\PSoC5/PWM_M.c **** * Return:
 479:Generated_Source\PSoC5/PWM_M.c **** *  None
 480:Generated_Source\PSoC5/PWM_M.c **** *
 481:Generated_Source\PSoC5/PWM_M.c **** *******************************************************************************/
 482:Generated_Source\PSoC5/PWM_M.c **** void PWM_M_WritePeriod(uint8 period) 
 483:Generated_Source\PSoC5/PWM_M.c **** {
 311              		.loc 1 483 0
 312              		.cfi_startproc
 313              		@ args = 0, pretend = 0, frame = 8
 314              		@ frame_needed = 1, uses_anonymous_args = 0
 315              		@ link register save eliminated.
ARM GAS  C:\Users\User\AppData\Local\Temp\cc25xQjQ.s 			page 15


 316 0000 80B4     		push	{r7}
 317              		.cfi_def_cfa_offset 4
 318              		.cfi_offset 7, -4
 319 0002 83B0     		sub	sp, sp, #12
 320              		.cfi_def_cfa_offset 16
 321 0004 00AF     		add	r7, sp, #0
 322              		.cfi_def_cfa_register 7
 323 0006 0346     		mov	r3, r0
 324 0008 FB71     		strb	r3, [r7, #7]
 484:Generated_Source\PSoC5/PWM_M.c ****     #if(PWM_M_UsingFixedFunction)
 485:Generated_Source\PSoC5/PWM_M.c ****         CY_SET_REG16(PWM_M_PERIOD_LSB_PTR, (uint16)period);
 486:Generated_Source\PSoC5/PWM_M.c ****     #else
 487:Generated_Source\PSoC5/PWM_M.c ****         CY_SET_REG8(PWM_M_PERIOD_LSB_PTR, period);
 325              		.loc 1 487 0
 326 000a 044A     		ldr	r2, .L22
 327 000c FB79     		ldrb	r3, [r7, #7]
 328 000e 1370     		strb	r3, [r2]
 488:Generated_Source\PSoC5/PWM_M.c ****     #endif /* (PWM_M_UsingFixedFunction) */
 489:Generated_Source\PSoC5/PWM_M.c **** }
 329              		.loc 1 489 0
 330 0010 00BF     		nop
 331 0012 0C37     		adds	r7, r7, #12
 332              		.cfi_def_cfa_offset 4
 333 0014 BD46     		mov	sp, r7
 334              		.cfi_def_cfa_register 13
 335              		@ sp needed
 336 0016 80BC     		pop	{r7}
 337              		.cfi_restore 7
 338              		.cfi_def_cfa_offset 0
 339 0018 7047     		bx	lr
 340              	.L23:
 341 001a 00BF     		.align	2
 342              	.L22:
 343 001c 4D640040 		.word	1073767501
 344              		.cfi_endproc
 345              	.LFE6:
 346              		.size	PWM_M_WritePeriod, .-PWM_M_WritePeriod
 347              		.section	.text.PWM_M_WriteCompare,"ax",%progbits
 348              		.align	2
 349              		.global	PWM_M_WriteCompare
 350              		.thumb
 351              		.thumb_func
 352              		.type	PWM_M_WriteCompare, %function
 353              	PWM_M_WriteCompare:
 354              	.LFB7:
 490:Generated_Source\PSoC5/PWM_M.c **** 
 491:Generated_Source\PSoC5/PWM_M.c **** #if (PWM_M_UseOneCompareMode)
 492:Generated_Source\PSoC5/PWM_M.c **** 
 493:Generated_Source\PSoC5/PWM_M.c **** 
 494:Generated_Source\PSoC5/PWM_M.c ****     /*******************************************************************************
 495:Generated_Source\PSoC5/PWM_M.c ****     * Function Name: PWM_M_WriteCompare
 496:Generated_Source\PSoC5/PWM_M.c ****     ********************************************************************************
 497:Generated_Source\PSoC5/PWM_M.c ****     *
 498:Generated_Source\PSoC5/PWM_M.c ****     * Summary:
 499:Generated_Source\PSoC5/PWM_M.c ****     *  This funtion is used to change the compare1 value when the PWM is in Dither
 500:Generated_Source\PSoC5/PWM_M.c ****     *  mode. The compare output will reflect the new value on the next UDB clock.
 501:Generated_Source\PSoC5/PWM_M.c ****     *  The compare output will be driven high when the present counter value is
ARM GAS  C:\Users\User\AppData\Local\Temp\cc25xQjQ.s 			page 16


 502:Generated_Source\PSoC5/PWM_M.c ****     *  compared to the compare value based on the compare mode defined in
 503:Generated_Source\PSoC5/PWM_M.c ****     *  Dither Mode.
 504:Generated_Source\PSoC5/PWM_M.c ****     *
 505:Generated_Source\PSoC5/PWM_M.c ****     * Parameters:
 506:Generated_Source\PSoC5/PWM_M.c ****     *  compare:  New compare value.
 507:Generated_Source\PSoC5/PWM_M.c ****     *
 508:Generated_Source\PSoC5/PWM_M.c ****     * Return:
 509:Generated_Source\PSoC5/PWM_M.c ****     *  None
 510:Generated_Source\PSoC5/PWM_M.c ****     *
 511:Generated_Source\PSoC5/PWM_M.c ****     * Side Effects:
 512:Generated_Source\PSoC5/PWM_M.c ****     *  This function is only available if the PWM mode parameter is set to
 513:Generated_Source\PSoC5/PWM_M.c ****     *  Dither Mode, Center Aligned Mode or One Output Mode
 514:Generated_Source\PSoC5/PWM_M.c ****     *
 515:Generated_Source\PSoC5/PWM_M.c ****     *******************************************************************************/
 516:Generated_Source\PSoC5/PWM_M.c ****     void PWM_M_WriteCompare(uint8 compare) \
 517:Generated_Source\PSoC5/PWM_M.c ****                                        
 518:Generated_Source\PSoC5/PWM_M.c ****     {
 355              		.loc 1 518 0
 356              		.cfi_startproc
 357              		@ args = 0, pretend = 0, frame = 8
 358              		@ frame_needed = 1, uses_anonymous_args = 0
 359              		@ link register save eliminated.
 360 0000 80B4     		push	{r7}
 361              		.cfi_def_cfa_offset 4
 362              		.cfi_offset 7, -4
 363 0002 83B0     		sub	sp, sp, #12
 364              		.cfi_def_cfa_offset 16
 365 0004 00AF     		add	r7, sp, #0
 366              		.cfi_def_cfa_register 7
 367 0006 0346     		mov	r3, r0
 368 0008 FB71     		strb	r3, [r7, #7]
 519:Generated_Source\PSoC5/PWM_M.c ****         #if(PWM_M_UsingFixedFunction)
 520:Generated_Source\PSoC5/PWM_M.c ****             CY_SET_REG16(PWM_M_COMPARE1_LSB_PTR, (uint16)compare);
 521:Generated_Source\PSoC5/PWM_M.c ****         #else
 522:Generated_Source\PSoC5/PWM_M.c ****             CY_SET_REG8(PWM_M_COMPARE1_LSB_PTR, compare);
 369              		.loc 1 522 0
 370 000a 044A     		ldr	r2, .L25
 371 000c FB79     		ldrb	r3, [r7, #7]
 372 000e 1370     		strb	r3, [r2]
 523:Generated_Source\PSoC5/PWM_M.c ****         #endif /* (PWM_M_UsingFixedFunction) */
 524:Generated_Source\PSoC5/PWM_M.c **** 
 525:Generated_Source\PSoC5/PWM_M.c ****         #if (PWM_M_PWMMode == PWM_M__B_PWM__DITHER)
 526:Generated_Source\PSoC5/PWM_M.c ****             #if(PWM_M_UsingFixedFunction)
 527:Generated_Source\PSoC5/PWM_M.c ****                 CY_SET_REG16(PWM_M_COMPARE2_LSB_PTR, (uint16)(compare + 1u));
 528:Generated_Source\PSoC5/PWM_M.c ****             #else
 529:Generated_Source\PSoC5/PWM_M.c ****                 CY_SET_REG8(PWM_M_COMPARE2_LSB_PTR, (compare + 1u));
 530:Generated_Source\PSoC5/PWM_M.c ****             #endif /* (PWM_M_UsingFixedFunction) */
 531:Generated_Source\PSoC5/PWM_M.c ****         #endif /* (PWM_M_PWMMode == PWM_M__B_PWM__DITHER) */
 532:Generated_Source\PSoC5/PWM_M.c ****     }
 373              		.loc 1 532 0
 374 0010 00BF     		nop
 375 0012 0C37     		adds	r7, r7, #12
 376              		.cfi_def_cfa_offset 4
 377 0014 BD46     		mov	sp, r7
 378              		.cfi_def_cfa_register 13
 379              		@ sp needed
 380 0016 80BC     		pop	{r7}
ARM GAS  C:\Users\User\AppData\Local\Temp\cc25xQjQ.s 			page 17


 381              		.cfi_restore 7
 382              		.cfi_def_cfa_offset 0
 383 0018 7047     		bx	lr
 384              	.L26:
 385 001a 00BF     		.align	2
 386              	.L25:
 387 001c 2D640040 		.word	1073767469
 388              		.cfi_endproc
 389              	.LFE7:
 390              		.size	PWM_M_WriteCompare, .-PWM_M_WriteCompare
 391              		.section	.text.PWM_M_ReadControlRegister,"ax",%progbits
 392              		.align	2
 393              		.global	PWM_M_ReadControlRegister
 394              		.thumb
 395              		.thumb_func
 396              		.type	PWM_M_ReadControlRegister, %function
 397              	PWM_M_ReadControlRegister:
 398              	.LFB8:
 533:Generated_Source\PSoC5/PWM_M.c **** 
 534:Generated_Source\PSoC5/PWM_M.c **** 
 535:Generated_Source\PSoC5/PWM_M.c **** #else
 536:Generated_Source\PSoC5/PWM_M.c **** 
 537:Generated_Source\PSoC5/PWM_M.c **** 
 538:Generated_Source\PSoC5/PWM_M.c ****     /*******************************************************************************
 539:Generated_Source\PSoC5/PWM_M.c ****     * Function Name: PWM_M_WriteCompare1
 540:Generated_Source\PSoC5/PWM_M.c ****     ********************************************************************************
 541:Generated_Source\PSoC5/PWM_M.c ****     *
 542:Generated_Source\PSoC5/PWM_M.c ****     * Summary:
 543:Generated_Source\PSoC5/PWM_M.c ****     *  This funtion is used to change the compare1 value.  The compare output will
 544:Generated_Source\PSoC5/PWM_M.c ****     *  reflect the new value on the next UDB clock.  The compare output will be
 545:Generated_Source\PSoC5/PWM_M.c ****     *  driven high when the present counter value is less than or less than or
 546:Generated_Source\PSoC5/PWM_M.c ****     *  equal to the compare register, depending on the mode.
 547:Generated_Source\PSoC5/PWM_M.c ****     *
 548:Generated_Source\PSoC5/PWM_M.c ****     * Parameters:
 549:Generated_Source\PSoC5/PWM_M.c ****     *  compare:  New compare value.
 550:Generated_Source\PSoC5/PWM_M.c ****     *
 551:Generated_Source\PSoC5/PWM_M.c ****     * Return:
 552:Generated_Source\PSoC5/PWM_M.c ****     *  None
 553:Generated_Source\PSoC5/PWM_M.c ****     *
 554:Generated_Source\PSoC5/PWM_M.c ****     *******************************************************************************/
 555:Generated_Source\PSoC5/PWM_M.c ****     void PWM_M_WriteCompare1(uint8 compare) \
 556:Generated_Source\PSoC5/PWM_M.c ****                                         
 557:Generated_Source\PSoC5/PWM_M.c ****     {
 558:Generated_Source\PSoC5/PWM_M.c ****         #if(PWM_M_UsingFixedFunction)
 559:Generated_Source\PSoC5/PWM_M.c ****             CY_SET_REG16(PWM_M_COMPARE1_LSB_PTR, (uint16)compare);
 560:Generated_Source\PSoC5/PWM_M.c ****         #else
 561:Generated_Source\PSoC5/PWM_M.c ****             CY_SET_REG8(PWM_M_COMPARE1_LSB_PTR, compare);
 562:Generated_Source\PSoC5/PWM_M.c ****         #endif /* (PWM_M_UsingFixedFunction) */
 563:Generated_Source\PSoC5/PWM_M.c ****     }
 564:Generated_Source\PSoC5/PWM_M.c **** 
 565:Generated_Source\PSoC5/PWM_M.c **** 
 566:Generated_Source\PSoC5/PWM_M.c ****     /*******************************************************************************
 567:Generated_Source\PSoC5/PWM_M.c ****     * Function Name: PWM_M_WriteCompare2
 568:Generated_Source\PSoC5/PWM_M.c ****     ********************************************************************************
 569:Generated_Source\PSoC5/PWM_M.c ****     *
 570:Generated_Source\PSoC5/PWM_M.c ****     * Summary:
 571:Generated_Source\PSoC5/PWM_M.c ****     *  This funtion is used to change the compare value, for compare1 output.
ARM GAS  C:\Users\User\AppData\Local\Temp\cc25xQjQ.s 			page 18


 572:Generated_Source\PSoC5/PWM_M.c ****     *  The compare output will reflect the new value on the next UDB clock.
 573:Generated_Source\PSoC5/PWM_M.c ****     *  The compare output will be driven high when the present counter value is
 574:Generated_Source\PSoC5/PWM_M.c ****     *  less than or less than or equal to the compare register, depending on the
 575:Generated_Source\PSoC5/PWM_M.c ****     *  mode.
 576:Generated_Source\PSoC5/PWM_M.c ****     *
 577:Generated_Source\PSoC5/PWM_M.c ****     * Parameters:
 578:Generated_Source\PSoC5/PWM_M.c ****     *  compare:  New compare value.
 579:Generated_Source\PSoC5/PWM_M.c ****     *
 580:Generated_Source\PSoC5/PWM_M.c ****     * Return:
 581:Generated_Source\PSoC5/PWM_M.c ****     *  None
 582:Generated_Source\PSoC5/PWM_M.c ****     *
 583:Generated_Source\PSoC5/PWM_M.c ****     *******************************************************************************/
 584:Generated_Source\PSoC5/PWM_M.c ****     void PWM_M_WriteCompare2(uint8 compare) \
 585:Generated_Source\PSoC5/PWM_M.c ****                                         
 586:Generated_Source\PSoC5/PWM_M.c ****     {
 587:Generated_Source\PSoC5/PWM_M.c ****         #if(PWM_M_UsingFixedFunction)
 588:Generated_Source\PSoC5/PWM_M.c ****             CY_SET_REG16(PWM_M_COMPARE2_LSB_PTR, compare);
 589:Generated_Source\PSoC5/PWM_M.c ****         #else
 590:Generated_Source\PSoC5/PWM_M.c ****             CY_SET_REG8(PWM_M_COMPARE2_LSB_PTR, compare);
 591:Generated_Source\PSoC5/PWM_M.c ****         #endif /* (PWM_M_UsingFixedFunction) */
 592:Generated_Source\PSoC5/PWM_M.c ****     }
 593:Generated_Source\PSoC5/PWM_M.c **** #endif /* UseOneCompareMode */
 594:Generated_Source\PSoC5/PWM_M.c **** 
 595:Generated_Source\PSoC5/PWM_M.c **** #if (PWM_M_DeadBandUsed)
 596:Generated_Source\PSoC5/PWM_M.c **** 
 597:Generated_Source\PSoC5/PWM_M.c **** 
 598:Generated_Source\PSoC5/PWM_M.c ****     /*******************************************************************************
 599:Generated_Source\PSoC5/PWM_M.c ****     * Function Name: PWM_M_WriteDeadTime
 600:Generated_Source\PSoC5/PWM_M.c ****     ********************************************************************************
 601:Generated_Source\PSoC5/PWM_M.c ****     *
 602:Generated_Source\PSoC5/PWM_M.c ****     * Summary:
 603:Generated_Source\PSoC5/PWM_M.c ****     *  This function writes the dead-band counts to the corresponding register
 604:Generated_Source\PSoC5/PWM_M.c ****     *
 605:Generated_Source\PSoC5/PWM_M.c ****     * Parameters:
 606:Generated_Source\PSoC5/PWM_M.c ****     *  deadtime:  Number of counts for dead time
 607:Generated_Source\PSoC5/PWM_M.c ****     *
 608:Generated_Source\PSoC5/PWM_M.c ****     * Return:
 609:Generated_Source\PSoC5/PWM_M.c ****     *  None
 610:Generated_Source\PSoC5/PWM_M.c ****     *
 611:Generated_Source\PSoC5/PWM_M.c ****     *******************************************************************************/
 612:Generated_Source\PSoC5/PWM_M.c ****     void PWM_M_WriteDeadTime(uint8 deadtime) 
 613:Generated_Source\PSoC5/PWM_M.c ****     {
 614:Generated_Source\PSoC5/PWM_M.c ****         /* If using the Dead Band 1-255 mode then just write the register */
 615:Generated_Source\PSoC5/PWM_M.c ****         #if(!PWM_M_DeadBand2_4)
 616:Generated_Source\PSoC5/PWM_M.c ****             CY_SET_REG8(PWM_M_DEADBAND_COUNT_PTR, deadtime);
 617:Generated_Source\PSoC5/PWM_M.c ****         #else
 618:Generated_Source\PSoC5/PWM_M.c ****             /* Otherwise the data has to be masked and offset */
 619:Generated_Source\PSoC5/PWM_M.c ****             /* Clear existing data */
 620:Generated_Source\PSoC5/PWM_M.c ****             PWM_M_DEADBAND_COUNT &= ((uint8)(~PWM_M_DEADBAND_COUNT_MASK));
 621:Generated_Source\PSoC5/PWM_M.c **** 
 622:Generated_Source\PSoC5/PWM_M.c ****             /* Set new dead time */
 623:Generated_Source\PSoC5/PWM_M.c ****             #if(PWM_M_DEADBAND_COUNT_SHIFT)
 624:Generated_Source\PSoC5/PWM_M.c ****                 PWM_M_DEADBAND_COUNT |= ((uint8)((uint8)deadtime << PWM_M_DEADBAND_COUNT_SHIFT)) &
 625:Generated_Source\PSoC5/PWM_M.c ****                                                     PWM_M_DEADBAND_COUNT_MASK;
 626:Generated_Source\PSoC5/PWM_M.c ****             #else
 627:Generated_Source\PSoC5/PWM_M.c ****                 PWM_M_DEADBAND_COUNT |= deadtime & PWM_M_DEADBAND_COUNT_MASK;
 628:Generated_Source\PSoC5/PWM_M.c ****             #endif /* (PWM_M_DEADBAND_COUNT_SHIFT) */
ARM GAS  C:\Users\User\AppData\Local\Temp\cc25xQjQ.s 			page 19


 629:Generated_Source\PSoC5/PWM_M.c **** 
 630:Generated_Source\PSoC5/PWM_M.c ****         #endif /* (!PWM_M_DeadBand2_4) */
 631:Generated_Source\PSoC5/PWM_M.c ****     }
 632:Generated_Source\PSoC5/PWM_M.c **** 
 633:Generated_Source\PSoC5/PWM_M.c **** 
 634:Generated_Source\PSoC5/PWM_M.c ****     /*******************************************************************************
 635:Generated_Source\PSoC5/PWM_M.c ****     * Function Name: PWM_M_ReadDeadTime
 636:Generated_Source\PSoC5/PWM_M.c ****     ********************************************************************************
 637:Generated_Source\PSoC5/PWM_M.c ****     *
 638:Generated_Source\PSoC5/PWM_M.c ****     * Summary:
 639:Generated_Source\PSoC5/PWM_M.c ****     *  This function reads the dead-band counts from the corresponding register
 640:Generated_Source\PSoC5/PWM_M.c ****     *
 641:Generated_Source\PSoC5/PWM_M.c ****     * Parameters:
 642:Generated_Source\PSoC5/PWM_M.c ****     *  None
 643:Generated_Source\PSoC5/PWM_M.c ****     *
 644:Generated_Source\PSoC5/PWM_M.c ****     * Return:
 645:Generated_Source\PSoC5/PWM_M.c ****     *  Dead Band Counts
 646:Generated_Source\PSoC5/PWM_M.c ****     *
 647:Generated_Source\PSoC5/PWM_M.c ****     *******************************************************************************/
 648:Generated_Source\PSoC5/PWM_M.c ****     uint8 PWM_M_ReadDeadTime(void) 
 649:Generated_Source\PSoC5/PWM_M.c ****     {
 650:Generated_Source\PSoC5/PWM_M.c ****         /* If using the Dead Band 1-255 mode then just read the register */
 651:Generated_Source\PSoC5/PWM_M.c ****         #if(!PWM_M_DeadBand2_4)
 652:Generated_Source\PSoC5/PWM_M.c ****             return (CY_GET_REG8(PWM_M_DEADBAND_COUNT_PTR));
 653:Generated_Source\PSoC5/PWM_M.c ****         #else
 654:Generated_Source\PSoC5/PWM_M.c **** 
 655:Generated_Source\PSoC5/PWM_M.c ****             /* Otherwise the data has to be masked and offset */
 656:Generated_Source\PSoC5/PWM_M.c ****             #if(PWM_M_DEADBAND_COUNT_SHIFT)
 657:Generated_Source\PSoC5/PWM_M.c ****                 return ((uint8)(((uint8)(PWM_M_DEADBAND_COUNT & PWM_M_DEADBAND_COUNT_MASK)) >>
 658:Generated_Source\PSoC5/PWM_M.c ****                                                                            PWM_M_DEADBAND_COUNT_SHI
 659:Generated_Source\PSoC5/PWM_M.c ****             #else
 660:Generated_Source\PSoC5/PWM_M.c ****                 return (PWM_M_DEADBAND_COUNT & PWM_M_DEADBAND_COUNT_MASK);
 661:Generated_Source\PSoC5/PWM_M.c ****             #endif /* (PWM_M_DEADBAND_COUNT_SHIFT) */
 662:Generated_Source\PSoC5/PWM_M.c ****         #endif /* (!PWM_M_DeadBand2_4) */
 663:Generated_Source\PSoC5/PWM_M.c ****     }
 664:Generated_Source\PSoC5/PWM_M.c **** #endif /* DeadBandUsed */
 665:Generated_Source\PSoC5/PWM_M.c **** 
 666:Generated_Source\PSoC5/PWM_M.c **** #if (PWM_M_UseStatus || PWM_M_UsingFixedFunction)
 667:Generated_Source\PSoC5/PWM_M.c **** 
 668:Generated_Source\PSoC5/PWM_M.c **** 
 669:Generated_Source\PSoC5/PWM_M.c ****     /*******************************************************************************
 670:Generated_Source\PSoC5/PWM_M.c ****     * Function Name: PWM_M_SetInterruptMode
 671:Generated_Source\PSoC5/PWM_M.c ****     ********************************************************************************
 672:Generated_Source\PSoC5/PWM_M.c ****     *
 673:Generated_Source\PSoC5/PWM_M.c ****     * Summary:
 674:Generated_Source\PSoC5/PWM_M.c ****     *  This function configures the interrupts mask control of theinterrupt
 675:Generated_Source\PSoC5/PWM_M.c ****     *  source status register.
 676:Generated_Source\PSoC5/PWM_M.c ****     *
 677:Generated_Source\PSoC5/PWM_M.c ****     * Parameters:
 678:Generated_Source\PSoC5/PWM_M.c ****     *  uint8 interruptMode: Bit field containing the interrupt sources enabled
 679:Generated_Source\PSoC5/PWM_M.c ****     *
 680:Generated_Source\PSoC5/PWM_M.c ****     * Return:
 681:Generated_Source\PSoC5/PWM_M.c ****     *  None
 682:Generated_Source\PSoC5/PWM_M.c ****     *
 683:Generated_Source\PSoC5/PWM_M.c ****     *******************************************************************************/
 684:Generated_Source\PSoC5/PWM_M.c ****     void PWM_M_SetInterruptMode(uint8 interruptMode) 
 685:Generated_Source\PSoC5/PWM_M.c ****     {
ARM GAS  C:\Users\User\AppData\Local\Temp\cc25xQjQ.s 			page 20


 686:Generated_Source\PSoC5/PWM_M.c ****         CY_SET_REG8(PWM_M_STATUS_MASK_PTR, interruptMode);
 687:Generated_Source\PSoC5/PWM_M.c ****     }
 688:Generated_Source\PSoC5/PWM_M.c **** 
 689:Generated_Source\PSoC5/PWM_M.c **** 
 690:Generated_Source\PSoC5/PWM_M.c ****     /*******************************************************************************
 691:Generated_Source\PSoC5/PWM_M.c ****     * Function Name: PWM_M_ReadStatusRegister
 692:Generated_Source\PSoC5/PWM_M.c ****     ********************************************************************************
 693:Generated_Source\PSoC5/PWM_M.c ****     *
 694:Generated_Source\PSoC5/PWM_M.c ****     * Summary:
 695:Generated_Source\PSoC5/PWM_M.c ****     *  This function returns the current state of the status register.
 696:Generated_Source\PSoC5/PWM_M.c ****     *
 697:Generated_Source\PSoC5/PWM_M.c ****     * Parameters:
 698:Generated_Source\PSoC5/PWM_M.c ****     *  None
 699:Generated_Source\PSoC5/PWM_M.c ****     *
 700:Generated_Source\PSoC5/PWM_M.c ****     * Return:
 701:Generated_Source\PSoC5/PWM_M.c ****     *  uint8 : Current status register value. The status register bits are:
 702:Generated_Source\PSoC5/PWM_M.c ****     *  [7:6] : Unused(0)
 703:Generated_Source\PSoC5/PWM_M.c ****     *  [5]   : Kill event output
 704:Generated_Source\PSoC5/PWM_M.c ****     *  [4]   : FIFO not empty
 705:Generated_Source\PSoC5/PWM_M.c ****     *  [3]   : FIFO full
 706:Generated_Source\PSoC5/PWM_M.c ****     *  [2]   : Terminal count
 707:Generated_Source\PSoC5/PWM_M.c ****     *  [1]   : Compare output 2
 708:Generated_Source\PSoC5/PWM_M.c ****     *  [0]   : Compare output 1
 709:Generated_Source\PSoC5/PWM_M.c ****     *
 710:Generated_Source\PSoC5/PWM_M.c ****     *******************************************************************************/
 711:Generated_Source\PSoC5/PWM_M.c ****     uint8 PWM_M_ReadStatusRegister(void) 
 712:Generated_Source\PSoC5/PWM_M.c ****     {
 713:Generated_Source\PSoC5/PWM_M.c ****         return (CY_GET_REG8(PWM_M_STATUS_PTR));
 714:Generated_Source\PSoC5/PWM_M.c ****     }
 715:Generated_Source\PSoC5/PWM_M.c **** 
 716:Generated_Source\PSoC5/PWM_M.c **** #endif /* (PWM_M_UseStatus || PWM_M_UsingFixedFunction) */
 717:Generated_Source\PSoC5/PWM_M.c **** 
 718:Generated_Source\PSoC5/PWM_M.c **** 
 719:Generated_Source\PSoC5/PWM_M.c **** #if (PWM_M_UseControl)
 720:Generated_Source\PSoC5/PWM_M.c **** 
 721:Generated_Source\PSoC5/PWM_M.c **** 
 722:Generated_Source\PSoC5/PWM_M.c ****     /*******************************************************************************
 723:Generated_Source\PSoC5/PWM_M.c ****     * Function Name: PWM_M_ReadControlRegister
 724:Generated_Source\PSoC5/PWM_M.c ****     ********************************************************************************
 725:Generated_Source\PSoC5/PWM_M.c ****     *
 726:Generated_Source\PSoC5/PWM_M.c ****     * Summary:
 727:Generated_Source\PSoC5/PWM_M.c ****     *  Returns the current state of the control register. This API is available
 728:Generated_Source\PSoC5/PWM_M.c ****     *  only if the control register is not removed.
 729:Generated_Source\PSoC5/PWM_M.c ****     *
 730:Generated_Source\PSoC5/PWM_M.c ****     * Parameters:
 731:Generated_Source\PSoC5/PWM_M.c ****     *  None
 732:Generated_Source\PSoC5/PWM_M.c ****     *
 733:Generated_Source\PSoC5/PWM_M.c ****     * Return:
 734:Generated_Source\PSoC5/PWM_M.c ****     *  uint8 : Current control register value
 735:Generated_Source\PSoC5/PWM_M.c ****     *
 736:Generated_Source\PSoC5/PWM_M.c ****     *******************************************************************************/
 737:Generated_Source\PSoC5/PWM_M.c ****     uint8 PWM_M_ReadControlRegister(void) 
 738:Generated_Source\PSoC5/PWM_M.c ****     {
 399              		.loc 1 738 0
 400              		.cfi_startproc
 401              		@ args = 0, pretend = 0, frame = 8
 402              		@ frame_needed = 1, uses_anonymous_args = 0
ARM GAS  C:\Users\User\AppData\Local\Temp\cc25xQjQ.s 			page 21


 403              		@ link register save eliminated.
 404 0000 80B4     		push	{r7}
 405              		.cfi_def_cfa_offset 4
 406              		.cfi_offset 7, -4
 407 0002 83B0     		sub	sp, sp, #12
 408              		.cfi_def_cfa_offset 16
 409 0004 00AF     		add	r7, sp, #0
 410              		.cfi_def_cfa_register 7
 739:Generated_Source\PSoC5/PWM_M.c ****         uint8 result;
 740:Generated_Source\PSoC5/PWM_M.c **** 
 741:Generated_Source\PSoC5/PWM_M.c ****         result = CY_GET_REG8(PWM_M_CONTROL_PTR);
 411              		.loc 1 741 0
 412 0006 044B     		ldr	r3, .L29
 413 0008 1B78     		ldrb	r3, [r3]
 414 000a FB71     		strb	r3, [r7, #7]
 742:Generated_Source\PSoC5/PWM_M.c ****         return (result);
 415              		.loc 1 742 0
 416 000c FB79     		ldrb	r3, [r7, #7]	@ zero_extendqisi2
 743:Generated_Source\PSoC5/PWM_M.c ****     }
 417              		.loc 1 743 0
 418 000e 1846     		mov	r0, r3
 419 0010 0C37     		adds	r7, r7, #12
 420              		.cfi_def_cfa_offset 4
 421 0012 BD46     		mov	sp, r7
 422              		.cfi_def_cfa_register 13
 423              		@ sp needed
 424 0014 80BC     		pop	{r7}
 425              		.cfi_restore 7
 426              		.cfi_def_cfa_offset 0
 427 0016 7047     		bx	lr
 428              	.L30:
 429              		.align	2
 430              	.L29:
 431 0018 7D640040 		.word	1073767549
 432              		.cfi_endproc
 433              	.LFE8:
 434              		.size	PWM_M_ReadControlRegister, .-PWM_M_ReadControlRegister
 435              		.section	.text.PWM_M_WriteControlRegister,"ax",%progbits
 436              		.align	2
 437              		.global	PWM_M_WriteControlRegister
 438              		.thumb
 439              		.thumb_func
 440              		.type	PWM_M_WriteControlRegister, %function
 441              	PWM_M_WriteControlRegister:
 442              	.LFB9:
 744:Generated_Source\PSoC5/PWM_M.c **** 
 745:Generated_Source\PSoC5/PWM_M.c **** 
 746:Generated_Source\PSoC5/PWM_M.c ****     /*******************************************************************************
 747:Generated_Source\PSoC5/PWM_M.c ****     * Function Name: PWM_M_WriteControlRegister
 748:Generated_Source\PSoC5/PWM_M.c ****     ********************************************************************************
 749:Generated_Source\PSoC5/PWM_M.c ****     *
 750:Generated_Source\PSoC5/PWM_M.c ****     * Summary:
 751:Generated_Source\PSoC5/PWM_M.c ****     *  Sets the bit field of the control register. This API is available only if
 752:Generated_Source\PSoC5/PWM_M.c ****     *  the control register is not removed.
 753:Generated_Source\PSoC5/PWM_M.c ****     *
 754:Generated_Source\PSoC5/PWM_M.c ****     * Parameters:
 755:Generated_Source\PSoC5/PWM_M.c ****     *  uint8 control: Control register bit field, The status register bits are:
ARM GAS  C:\Users\User\AppData\Local\Temp\cc25xQjQ.s 			page 22


 756:Generated_Source\PSoC5/PWM_M.c ****     *  [7]   : PWM Enable
 757:Generated_Source\PSoC5/PWM_M.c ****     *  [6]   : Reset
 758:Generated_Source\PSoC5/PWM_M.c ****     *  [5:3] : Compare Mode2
 759:Generated_Source\PSoC5/PWM_M.c ****     *  [2:0] : Compare Mode2
 760:Generated_Source\PSoC5/PWM_M.c ****     *
 761:Generated_Source\PSoC5/PWM_M.c ****     * Return:
 762:Generated_Source\PSoC5/PWM_M.c ****     *  None
 763:Generated_Source\PSoC5/PWM_M.c ****     *
 764:Generated_Source\PSoC5/PWM_M.c ****     *******************************************************************************/
 765:Generated_Source\PSoC5/PWM_M.c ****     void PWM_M_WriteControlRegister(uint8 control) 
 766:Generated_Source\PSoC5/PWM_M.c ****     {
 443              		.loc 1 766 0
 444              		.cfi_startproc
 445              		@ args = 0, pretend = 0, frame = 8
 446              		@ frame_needed = 1, uses_anonymous_args = 0
 447              		@ link register save eliminated.
 448 0000 80B4     		push	{r7}
 449              		.cfi_def_cfa_offset 4
 450              		.cfi_offset 7, -4
 451 0002 83B0     		sub	sp, sp, #12
 452              		.cfi_def_cfa_offset 16
 453 0004 00AF     		add	r7, sp, #0
 454              		.cfi_def_cfa_register 7
 455 0006 0346     		mov	r3, r0
 456 0008 FB71     		strb	r3, [r7, #7]
 767:Generated_Source\PSoC5/PWM_M.c ****         CY_SET_REG8(PWM_M_CONTROL_PTR, control);
 457              		.loc 1 767 0
 458 000a 044A     		ldr	r2, .L32
 459 000c FB79     		ldrb	r3, [r7, #7]
 460 000e 1370     		strb	r3, [r2]
 768:Generated_Source\PSoC5/PWM_M.c ****     }
 461              		.loc 1 768 0
 462 0010 00BF     		nop
 463 0012 0C37     		adds	r7, r7, #12
 464              		.cfi_def_cfa_offset 4
 465 0014 BD46     		mov	sp, r7
 466              		.cfi_def_cfa_register 13
 467              		@ sp needed
 468 0016 80BC     		pop	{r7}
 469              		.cfi_restore 7
 470              		.cfi_def_cfa_offset 0
 471 0018 7047     		bx	lr
 472              	.L33:
 473 001a 00BF     		.align	2
 474              	.L32:
 475 001c 7D640040 		.word	1073767549
 476              		.cfi_endproc
 477              	.LFE9:
 478              		.size	PWM_M_WriteControlRegister, .-PWM_M_WriteControlRegister
 479              		.section	.text.PWM_M_ReadCapture,"ax",%progbits
 480              		.align	2
 481              		.global	PWM_M_ReadCapture
 482              		.thumb
 483              		.thumb_func
 484              		.type	PWM_M_ReadCapture, %function
 485              	PWM_M_ReadCapture:
 486              	.LFB10:
ARM GAS  C:\Users\User\AppData\Local\Temp\cc25xQjQ.s 			page 23


 769:Generated_Source\PSoC5/PWM_M.c **** 
 770:Generated_Source\PSoC5/PWM_M.c **** #endif /* (PWM_M_UseControl) */
 771:Generated_Source\PSoC5/PWM_M.c **** 
 772:Generated_Source\PSoC5/PWM_M.c **** 
 773:Generated_Source\PSoC5/PWM_M.c **** #if (!PWM_M_UsingFixedFunction)
 774:Generated_Source\PSoC5/PWM_M.c **** 
 775:Generated_Source\PSoC5/PWM_M.c **** 
 776:Generated_Source\PSoC5/PWM_M.c ****     /*******************************************************************************
 777:Generated_Source\PSoC5/PWM_M.c ****     * Function Name: PWM_M_ReadCapture
 778:Generated_Source\PSoC5/PWM_M.c ****     ********************************************************************************
 779:Generated_Source\PSoC5/PWM_M.c ****     *
 780:Generated_Source\PSoC5/PWM_M.c ****     * Summary:
 781:Generated_Source\PSoC5/PWM_M.c ****     *  Reads the capture value from the capture FIFO.
 782:Generated_Source\PSoC5/PWM_M.c ****     *
 783:Generated_Source\PSoC5/PWM_M.c ****     * Parameters:
 784:Generated_Source\PSoC5/PWM_M.c ****     *  None
 785:Generated_Source\PSoC5/PWM_M.c ****     *
 786:Generated_Source\PSoC5/PWM_M.c ****     * Return:
 787:Generated_Source\PSoC5/PWM_M.c ****     *  uint8/uint16: The current capture value
 788:Generated_Source\PSoC5/PWM_M.c ****     *
 789:Generated_Source\PSoC5/PWM_M.c ****     *******************************************************************************/
 790:Generated_Source\PSoC5/PWM_M.c ****     uint8 PWM_M_ReadCapture(void) 
 791:Generated_Source\PSoC5/PWM_M.c ****     {
 487              		.loc 1 791 0
 488              		.cfi_startproc
 489              		@ args = 0, pretend = 0, frame = 0
 490              		@ frame_needed = 1, uses_anonymous_args = 0
 491              		@ link register save eliminated.
 492 0000 80B4     		push	{r7}
 493              		.cfi_def_cfa_offset 4
 494              		.cfi_offset 7, -4
 495 0002 00AF     		add	r7, sp, #0
 496              		.cfi_def_cfa_register 7
 792:Generated_Source\PSoC5/PWM_M.c ****         return (CY_GET_REG8(PWM_M_CAPTURE_LSB_PTR));
 497              		.loc 1 792 0
 498 0004 034B     		ldr	r3, .L36
 499 0006 1B78     		ldrb	r3, [r3]
 500 0008 DBB2     		uxtb	r3, r3
 793:Generated_Source\PSoC5/PWM_M.c ****     }
 501              		.loc 1 793 0
 502 000a 1846     		mov	r0, r3
 503 000c BD46     		mov	sp, r7
 504              		.cfi_def_cfa_register 13
 505              		@ sp needed
 506 000e 80BC     		pop	{r7}
 507              		.cfi_restore 7
 508              		.cfi_def_cfa_offset 0
 509 0010 7047     		bx	lr
 510              	.L37:
 511 0012 00BF     		.align	2
 512              	.L36:
 513 0014 5D640040 		.word	1073767517
 514              		.cfi_endproc
 515              	.LFE10:
 516              		.size	PWM_M_ReadCapture, .-PWM_M_ReadCapture
 517              		.section	.text.PWM_M_ReadCompare,"ax",%progbits
 518              		.align	2
ARM GAS  C:\Users\User\AppData\Local\Temp\cc25xQjQ.s 			page 24


 519              		.global	PWM_M_ReadCompare
 520              		.thumb
 521              		.thumb_func
 522              		.type	PWM_M_ReadCompare, %function
 523              	PWM_M_ReadCompare:
 524              	.LFB11:
 794:Generated_Source\PSoC5/PWM_M.c **** 
 795:Generated_Source\PSoC5/PWM_M.c **** #endif /* (!PWM_M_UsingFixedFunction) */
 796:Generated_Source\PSoC5/PWM_M.c **** 
 797:Generated_Source\PSoC5/PWM_M.c **** 
 798:Generated_Source\PSoC5/PWM_M.c **** #if (PWM_M_UseOneCompareMode)
 799:Generated_Source\PSoC5/PWM_M.c **** 
 800:Generated_Source\PSoC5/PWM_M.c **** 
 801:Generated_Source\PSoC5/PWM_M.c ****     /*******************************************************************************
 802:Generated_Source\PSoC5/PWM_M.c ****     * Function Name: PWM_M_ReadCompare
 803:Generated_Source\PSoC5/PWM_M.c ****     ********************************************************************************
 804:Generated_Source\PSoC5/PWM_M.c ****     *
 805:Generated_Source\PSoC5/PWM_M.c ****     * Summary:
 806:Generated_Source\PSoC5/PWM_M.c ****     *  Reads the compare value for the compare output when the PWM Mode parameter is
 807:Generated_Source\PSoC5/PWM_M.c ****     *  set to Dither mode, Center Aligned mode, or One Output mode.
 808:Generated_Source\PSoC5/PWM_M.c ****     *
 809:Generated_Source\PSoC5/PWM_M.c ****     * Parameters:
 810:Generated_Source\PSoC5/PWM_M.c ****     *  None
 811:Generated_Source\PSoC5/PWM_M.c ****     *
 812:Generated_Source\PSoC5/PWM_M.c ****     * Return:
 813:Generated_Source\PSoC5/PWM_M.c ****     *  uint8/uint16: Current compare value
 814:Generated_Source\PSoC5/PWM_M.c ****     *
 815:Generated_Source\PSoC5/PWM_M.c ****     *******************************************************************************/
 816:Generated_Source\PSoC5/PWM_M.c ****     uint8 PWM_M_ReadCompare(void) 
 817:Generated_Source\PSoC5/PWM_M.c ****     {
 525              		.loc 1 817 0
 526              		.cfi_startproc
 527              		@ args = 0, pretend = 0, frame = 0
 528              		@ frame_needed = 1, uses_anonymous_args = 0
 529              		@ link register save eliminated.
 530 0000 80B4     		push	{r7}
 531              		.cfi_def_cfa_offset 4
 532              		.cfi_offset 7, -4
 533 0002 00AF     		add	r7, sp, #0
 534              		.cfi_def_cfa_register 7
 818:Generated_Source\PSoC5/PWM_M.c ****         #if(PWM_M_UsingFixedFunction)
 819:Generated_Source\PSoC5/PWM_M.c ****             return ((uint8)CY_GET_REG16(PWM_M_COMPARE1_LSB_PTR));
 820:Generated_Source\PSoC5/PWM_M.c ****         #else
 821:Generated_Source\PSoC5/PWM_M.c ****             return (CY_GET_REG8(PWM_M_COMPARE1_LSB_PTR));
 535              		.loc 1 821 0
 536 0004 034B     		ldr	r3, .L40
 537 0006 1B78     		ldrb	r3, [r3]
 538 0008 DBB2     		uxtb	r3, r3
 822:Generated_Source\PSoC5/PWM_M.c ****         #endif /* (PWM_M_UsingFixedFunction) */
 823:Generated_Source\PSoC5/PWM_M.c ****     }
 539              		.loc 1 823 0
 540 000a 1846     		mov	r0, r3
 541 000c BD46     		mov	sp, r7
 542              		.cfi_def_cfa_register 13
 543              		@ sp needed
 544 000e 80BC     		pop	{r7}
 545              		.cfi_restore 7
ARM GAS  C:\Users\User\AppData\Local\Temp\cc25xQjQ.s 			page 25


 546              		.cfi_def_cfa_offset 0
 547 0010 7047     		bx	lr
 548              	.L41:
 549 0012 00BF     		.align	2
 550              	.L40:
 551 0014 2D640040 		.word	1073767469
 552              		.cfi_endproc
 553              	.LFE11:
 554              		.size	PWM_M_ReadCompare, .-PWM_M_ReadCompare
 555              		.section	.text.PWM_M_ReadPeriod,"ax",%progbits
 556              		.align	2
 557              		.global	PWM_M_ReadPeriod
 558              		.thumb
 559              		.thumb_func
 560              		.type	PWM_M_ReadPeriod, %function
 561              	PWM_M_ReadPeriod:
 562              	.LFB12:
 824:Generated_Source\PSoC5/PWM_M.c **** 
 825:Generated_Source\PSoC5/PWM_M.c **** #else
 826:Generated_Source\PSoC5/PWM_M.c **** 
 827:Generated_Source\PSoC5/PWM_M.c **** 
 828:Generated_Source\PSoC5/PWM_M.c ****     /*******************************************************************************
 829:Generated_Source\PSoC5/PWM_M.c ****     * Function Name: PWM_M_ReadCompare1
 830:Generated_Source\PSoC5/PWM_M.c ****     ********************************************************************************
 831:Generated_Source\PSoC5/PWM_M.c ****     *
 832:Generated_Source\PSoC5/PWM_M.c ****     * Summary:
 833:Generated_Source\PSoC5/PWM_M.c ****     *  Reads the compare value for the compare1 output.
 834:Generated_Source\PSoC5/PWM_M.c ****     *
 835:Generated_Source\PSoC5/PWM_M.c ****     * Parameters:
 836:Generated_Source\PSoC5/PWM_M.c ****     *  None
 837:Generated_Source\PSoC5/PWM_M.c ****     *
 838:Generated_Source\PSoC5/PWM_M.c ****     * Return:
 839:Generated_Source\PSoC5/PWM_M.c ****     *  uint8/uint16: Current compare value.
 840:Generated_Source\PSoC5/PWM_M.c ****     *
 841:Generated_Source\PSoC5/PWM_M.c ****     *******************************************************************************/
 842:Generated_Source\PSoC5/PWM_M.c ****     uint8 PWM_M_ReadCompare1(void) 
 843:Generated_Source\PSoC5/PWM_M.c ****     {
 844:Generated_Source\PSoC5/PWM_M.c ****         return (CY_GET_REG8(PWM_M_COMPARE1_LSB_PTR));
 845:Generated_Source\PSoC5/PWM_M.c ****     }
 846:Generated_Source\PSoC5/PWM_M.c **** 
 847:Generated_Source\PSoC5/PWM_M.c **** 
 848:Generated_Source\PSoC5/PWM_M.c ****     /*******************************************************************************
 849:Generated_Source\PSoC5/PWM_M.c ****     * Function Name: PWM_M_ReadCompare2
 850:Generated_Source\PSoC5/PWM_M.c ****     ********************************************************************************
 851:Generated_Source\PSoC5/PWM_M.c ****     *
 852:Generated_Source\PSoC5/PWM_M.c ****     * Summary:
 853:Generated_Source\PSoC5/PWM_M.c ****     *  Reads the compare value for the compare2 output.
 854:Generated_Source\PSoC5/PWM_M.c ****     *
 855:Generated_Source\PSoC5/PWM_M.c ****     * Parameters:
 856:Generated_Source\PSoC5/PWM_M.c ****     *  None
 857:Generated_Source\PSoC5/PWM_M.c ****     *
 858:Generated_Source\PSoC5/PWM_M.c ****     * Return:
 859:Generated_Source\PSoC5/PWM_M.c ****     *  uint8/uint16: Current compare value.
 860:Generated_Source\PSoC5/PWM_M.c ****     *
 861:Generated_Source\PSoC5/PWM_M.c ****     *******************************************************************************/
 862:Generated_Source\PSoC5/PWM_M.c ****     uint8 PWM_M_ReadCompare2(void) 
 863:Generated_Source\PSoC5/PWM_M.c ****     {
ARM GAS  C:\Users\User\AppData\Local\Temp\cc25xQjQ.s 			page 26


 864:Generated_Source\PSoC5/PWM_M.c ****         return (CY_GET_REG8(PWM_M_COMPARE2_LSB_PTR));
 865:Generated_Source\PSoC5/PWM_M.c ****     }
 866:Generated_Source\PSoC5/PWM_M.c **** 
 867:Generated_Source\PSoC5/PWM_M.c **** #endif /* (PWM_M_UseOneCompareMode) */
 868:Generated_Source\PSoC5/PWM_M.c **** 
 869:Generated_Source\PSoC5/PWM_M.c **** 
 870:Generated_Source\PSoC5/PWM_M.c **** /*******************************************************************************
 871:Generated_Source\PSoC5/PWM_M.c **** * Function Name: PWM_M_ReadPeriod
 872:Generated_Source\PSoC5/PWM_M.c **** ********************************************************************************
 873:Generated_Source\PSoC5/PWM_M.c **** *
 874:Generated_Source\PSoC5/PWM_M.c **** * Summary:
 875:Generated_Source\PSoC5/PWM_M.c **** *  Reads the period value used by the PWM hardware.
 876:Generated_Source\PSoC5/PWM_M.c **** *
 877:Generated_Source\PSoC5/PWM_M.c **** * Parameters:
 878:Generated_Source\PSoC5/PWM_M.c **** *  None
 879:Generated_Source\PSoC5/PWM_M.c **** *
 880:Generated_Source\PSoC5/PWM_M.c **** * Return:
 881:Generated_Source\PSoC5/PWM_M.c **** *  uint8/16: Period value
 882:Generated_Source\PSoC5/PWM_M.c **** *
 883:Generated_Source\PSoC5/PWM_M.c **** *******************************************************************************/
 884:Generated_Source\PSoC5/PWM_M.c **** uint8 PWM_M_ReadPeriod(void) 
 885:Generated_Source\PSoC5/PWM_M.c **** {
 563              		.loc 1 885 0
 564              		.cfi_startproc
 565              		@ args = 0, pretend = 0, frame = 0
 566              		@ frame_needed = 1, uses_anonymous_args = 0
 567              		@ link register save eliminated.
 568 0000 80B4     		push	{r7}
 569              		.cfi_def_cfa_offset 4
 570              		.cfi_offset 7, -4
 571 0002 00AF     		add	r7, sp, #0
 572              		.cfi_def_cfa_register 7
 886:Generated_Source\PSoC5/PWM_M.c ****     #if(PWM_M_UsingFixedFunction)
 887:Generated_Source\PSoC5/PWM_M.c ****         return ((uint8)CY_GET_REG16(PWM_M_PERIOD_LSB_PTR));
 888:Generated_Source\PSoC5/PWM_M.c ****     #else
 889:Generated_Source\PSoC5/PWM_M.c ****         return (CY_GET_REG8(PWM_M_PERIOD_LSB_PTR));
 573              		.loc 1 889 0
 574 0004 034B     		ldr	r3, .L44
 575 0006 1B78     		ldrb	r3, [r3]
 576 0008 DBB2     		uxtb	r3, r3
 890:Generated_Source\PSoC5/PWM_M.c ****     #endif /* (PWM_M_UsingFixedFunction) */
 891:Generated_Source\PSoC5/PWM_M.c **** }
 577              		.loc 1 891 0
 578 000a 1846     		mov	r0, r3
 579 000c BD46     		mov	sp, r7
 580              		.cfi_def_cfa_register 13
 581              		@ sp needed
 582 000e 80BC     		pop	{r7}
 583              		.cfi_restore 7
 584              		.cfi_def_cfa_offset 0
 585 0010 7047     		bx	lr
 586              	.L45:
 587 0012 00BF     		.align	2
 588              	.L44:
 589 0014 4D640040 		.word	1073767501
 590              		.cfi_endproc
 591              	.LFE12:
ARM GAS  C:\Users\User\AppData\Local\Temp\cc25xQjQ.s 			page 27


 592              		.size	PWM_M_ReadPeriod, .-PWM_M_ReadPeriod
 593              		.text
 594              	.Letext0:
 595              		.file 2 "Generated_Source\\PSoC5\\cytypes.h"