ARM GAS  C:\Users\User\AppData\Local\Temp\ccVBK48o.s 			page 1


   1              		.syntax unified
   2              		.cpu cortex-m3
   3              		.fpu softvfp
   4              		.eabi_attribute 20, 1
   5              		.eabi_attribute 21, 1
   6              		.eabi_attribute 23, 3
   7              		.eabi_attribute 24, 1
   8              		.eabi_attribute 25, 1
   9              		.eabi_attribute 26, 1
  10              		.eabi_attribute 30, 6
  11              		.eabi_attribute 34, 1
  12              		.eabi_attribute 18, 4
  13              		.thumb
  14              		.syntax unified
  15              		.file	"usb_protocols.c"
  16              		.text
  17              	.Ltext0:
  18              		.cfi_sections	.debug_frame
  19              		.comm	buffer,64,4
  20              		.section	.text.USB_send,"ax",%progbits
  21              		.align	2
  22              		.global	USB_send
  23              		.thumb
  24              		.thumb_func
  25              		.type	USB_send, %function
  26              	USB_send:
  27              	.LFB64:
  28              		.file 1 "usb_protocols.c"
   1:usb_protocols.c **** /*********************************************************************************
   2:usb_protocols.c **** * File Name: usb_protocols.c
   3:usb_protocols.c **** *
   4:usb_protocols.c **** * Description:
   5:usb_protocols.c **** *  Source code for the protocols used by the USB.
   6:usb_protocols.c **** *  converted to USBUART in January 2023
   7:usb_protocols.c **** *
   8:usb_protocols.c **** *
   9:usb_protocols.c **** **********************************************************************************
  10:usb_protocols.c ****  * Copyright Naresuan University, Phitsanulok Thailand 2017-2023
  11:usb_protocols.c ****  * Released under Creative Commons Attribution-ShareAlike  3.0 (CC BY-SA 3.0 US)
  12:usb_protocols.c **** *********************************************************************************/
  13:usb_protocols.c **** 
  14:usb_protocols.c **** #include <project.h>
  15:usb_protocols.c **** #include "usb_protocols.h"
  16:usb_protocols.c **** 
  17:usb_protocols.c **** 
  18:usb_protocols.c **** /******************************************************************************
  19:usb_protocols.c **** * Function Name: USB_Send
  20:usb_protocols.c **** *************************************************************************************
  21:usb_protocols.c **** *
  22:usb_protocols.c **** * Summary:
  23:usb_protocols.c **** *  Take a buffer as input and export it, the size of bytes to send is also inputted
  24:usb_protocols.c **** *
  25:usb_protocols.c **** * Parameters:
  26:usb_protocols.c **** *  uint8_t data buffer: array of data to send
  27:usb_protocols.c **** *  uint16_t count: the size of the buffer
  28:usb_protocols.c **** *
  29:usb_protocols.c **** * Return:
ARM GAS  C:\Users\User\AppData\Local\Temp\ccVBK48o.s 			page 2


  30:usb_protocols.c **** *  None
  31:usb_protocols.c **** *
  32:usb_protocols.c **** *******************************************************************************************/
  33:usb_protocols.c **** 
  34:usb_protocols.c **** 
  35:usb_protocols.c **** void USB_send (uint8_t data_buffer[], size_t count ) 
  36:usb_protocols.c **** {
  29              		.loc 1 36 0
  30              		.cfi_startproc
  31              		@ args = 0, pretend = 0, frame = 8
  32              		@ frame_needed = 1, uses_anonymous_args = 0
  33 0000 80B5     		push	{r7, lr}
  34              		.cfi_def_cfa_offset 8
  35              		.cfi_offset 7, -8
  36              		.cfi_offset 14, -4
  37 0002 82B0     		sub	sp, sp, #8
  38              		.cfi_def_cfa_offset 16
  39 0004 00AF     		add	r7, sp, #0
  40              		.cfi_def_cfa_register 7
  41 0006 7860     		str	r0, [r7, #4]
  42 0008 3960     		str	r1, [r7]
  37:usb_protocols.c ****     if (count==0) {
  43              		.loc 1 37 0
  44 000a 3B68     		ldr	r3, [r7]
  45 000c 002B     		cmp	r3, #0
  46 000e 03D1     		bne	.L2
  38:usb_protocols.c ****         count = strlen((char*)data_buffer); }
  47              		.loc 1 38 0
  48 0010 7868     		ldr	r0, [r7, #4]
  49 0012 FFF7FEFF 		bl	strlen
  50 0016 3860     		str	r0, [r7]
  51              	.L2:
  39:usb_protocols.c ****                    
  40:usb_protocols.c ****         /* Echo back */
  41:usb_protocols.c ****         USBUART_PutData(data_buffer, count);
  52              		.loc 1 41 0
  53 0018 3B68     		ldr	r3, [r7]
  54 001a 9BB2     		uxth	r3, r3
  55 001c 1946     		mov	r1, r3
  56 001e 7868     		ldr	r0, [r7, #4]
  57 0020 FFF7FEFF 		bl	USBUART_PutData
  42:usb_protocols.c ****                   
  43:usb_protocols.c ****         /* Terminate with Null */
  44:usb_protocols.c ****         if (USBUART_BUFFER_SIZE == count){
  58              		.loc 1 44 0
  59 0024 3B68     		ldr	r3, [r7]
  60 0026 402B     		cmp	r3, #64
  61 0028 09D1     		bne	.L6
  45:usb_protocols.c ****             
  46:usb_protocols.c ****             /* Wait until component is ready to send data to PC. */
  47:usb_protocols.c ****             while (0u == USBUART_CDCIsReady())
  62              		.loc 1 47 0
  63 002a 00BF     		nop
  64              	.L4:
  65              		.loc 1 47 0 is_stmt 0 discriminator 1
  66 002c FFF7FEFF 		bl	USBUART_CDCIsReady
  67 0030 0346     		mov	r3, r0
ARM GAS  C:\Users\User\AppData\Local\Temp\ccVBK48o.s 			page 3


  68 0032 002B     		cmp	r3, #0
  69 0034 FAD0     		beq	.L4
  48:usb_protocols.c ****                 {
  49:usb_protocols.c ****                 }
  50:usb_protocols.c **** 
  51:usb_protocols.c ****                 /* Send zero-length packet to PC. */
  52:usb_protocols.c ****                 USBUART_PutData(NULL, 0u);
  70              		.loc 1 52 0 is_stmt 1
  71 0036 0021     		movs	r1, #0
  72 0038 0020     		movs	r0, #0
  73 003a FFF7FEFF 		bl	USBUART_PutData
  74              	.L6:
  53:usb_protocols.c ****             }
  54:usb_protocols.c ****                     
  55:usb_protocols.c ****         /* Send a crlf out */
  56:usb_protocols.c ****         while (0u == USBUART_CDCIsReady())
  75              		.loc 1 56 0
  76 003e 00BF     		nop
  77              	.L5:
  78              		.loc 1 56 0 is_stmt 0 discriminator 1
  79 0040 FFF7FEFF 		bl	USBUART_CDCIsReady
  80 0044 0346     		mov	r3, r0
  81 0046 002B     		cmp	r3, #0
  82 0048 FAD0     		beq	.L5
  57:usb_protocols.c ****            {
  58:usb_protocols.c ****            }
  59:usb_protocols.c ****            USBUART_PutCRLF();        
  83              		.loc 1 59 0 is_stmt 1
  84 004a FFF7FEFF 		bl	USBUART_PutCRLF
  60:usb_protocols.c **** }
  85              		.loc 1 60 0
  86 004e 00BF     		nop
  87 0050 0837     		adds	r7, r7, #8
  88              		.cfi_def_cfa_offset 8
  89 0052 BD46     		mov	sp, r7
  90              		.cfi_def_cfa_register 13
  91              		@ sp needed
  92 0054 80BD     		pop	{r7, pc}
  93              		.cfi_endproc
  94              	.LFE64:
  95              		.size	USB_send, .-USB_send
  96 0056 00BF     		.text
  97              	.Letext0:
  98              		.file 2 "c:\\program files (x86)\\cypress\\psoc creator\\4.4\\psoc creator\\import\\gnu\\arm\\5.4.
  99              		.file 3 "c:\\program files (x86)\\cypress\\psoc creator\\4.4\\psoc creator\\import\\gnu\\arm\\5.4.
 100              		.file 4 "Generated_Source\\PSoC5/cytypes.h"
 101              		.file 5 "c:\\program files (x86)\\cypress\\psoc creator\\4.4\\psoc creator\\import\\gnu\\arm\\5.4.
 102              		.file 6 "Generated_Source\\PSoC5/core_cm3.h"
 103              		.file 7 "globals.h"