ARM GAS  C:\Users\User\AppData\Local\Temp\cc5iFwOs.s 			page 1


   1              		.syntax unified
   2              		.cpu cortex-m3
   3              		.fpu softvfp
   4              		.eabi_attribute 20, 1
   5              		.eabi_attribute 21, 1
   6              		.eabi_attribute 23, 3
   7              		.eabi_attribute 24, 1
   8              		.eabi_attribute 25, 1
   9              		.eabi_attribute 26, 1
  10              		.eabi_attribute 30, 6
  11              		.eabi_attribute 34, 1
  12              		.eabi_attribute 18, 4
  13              		.thumb
  14              		.syntax unified
  15              		.file	"calibrate.c"
  16              		.text
  17              	.Ltext0:
  18              		.cfi_sections	.debug_frame
  19              		.comm	buffer,64,4
  20              		.comm	calibrate_array,20,4
  21              		.global	calibrate_TIA_resistor_list
  22              		.data
  23              		.align	2
  24              		.type	calibrate_TIA_resistor_list, %object
  25              		.size	calibrate_TIA_resistor_list, 32
  26              	calibrate_TIA_resistor_list:
  27 0000 14000000 		.word	20
  28 0004 1E000000 		.word	30
  29 0008 28000000 		.word	40
  30 000c 50000000 		.word	80
  31 0010 78000000 		.word	120
  32 0014 FA000000 		.word	250
  33 0018 F4010000 		.word	500
  34 001c E8030000 		.word	1000
  35              		.comm	TIA_resistor_value_index,1,1
  36              		.global	__aeabi_ui2d
  37              		.global	__aeabi_d2uiz
  38              		.global	__aeabi_i2d
  39              		.global	__aeabi_ddiv
  40              		.global	__aeabi_d2f
  41              		.global	__aeabi_f2iz
  42              		.section	.text.calibrate_TIA,"ax",%progbits
  43              		.align	2
  44              		.global	calibrate_TIA
  45              		.thumb
  46              		.thumb_func
  47              		.type	calibrate_TIA, %function
  48              	calibrate_TIA:
  49              	.LFB64:
  50              		.file 1 "calibrate.c"
   1:calibrate.c   **** /*******************************************************************************
   2:calibrate.c   **** * File Name: calibrate.c
   3:calibrate.c   **** *
   4:calibrate.c   **** * Description:
   5:calibrate.c   **** *  Protocols to calibrate the current measuring circuitry i.e. TIA / delta sigma ADC with an IDAC
   6:calibrate.c   **** *
   7:calibrate.c   **** **********************************************************************************
ARM GAS  C:\Users\User\AppData\Local\Temp\cc5iFwOs.s 			page 2


   8:calibrate.c   ****  * Copyright Kyle Vitautas Lopin, Naresuan University, Phitsanulok Thailand
   9:calibrate.c   ****  * Released under Creative Commons Attribution-ShareAlike  3.0 (CC BY-SA 3.0 US)
  10:calibrate.c   **** *********************************************************************************/
  11:calibrate.c   **** 
  12:calibrate.c   **** #include <project.h>
  13:calibrate.c   **** #include <calibrate.h>
  14:calibrate.c   **** #include <main.h>
  15:calibrate.c   **** 
  16:calibrate.c   **** /***************************************
  17:calibrate.c   **** * Calibration Resistors
  18:calibrate.c   **** ***************************************/
  19:calibrate.c   **** int calibrate_TIA_resistor_list[8] = {20, 30, 40, 80, 120, 250, 500, 1000};
  20:calibrate.c   **** uint8_t   TIA_resistor_value_index;
  21:calibrate.c   **** 
  22:calibrate.c   **** /******************************************************************************
  23:calibrate.c   **** * Function Name: calibrate_TIA
  24:calibrate.c   **** *******************************************************************************
  25:calibrate.c   **** *
  26:calibrate.c   **** * Summary:
  27:calibrate.c   **** *  Calibrate the TIA circuit each time the current gain settings are changed
  28:calibrate.c   **** *
  29:calibrate.c   **** * Global variables:
  30:calibrate.c   **** *  uint8 TIA_resistor_value_index: index of whick TIA resistor to use, Supplied by USB input
  31:calibrate.c   **** *  uint8 ADC_buffer_index: which ADC buffer is used, gain = 2**ADC_buffer_index
  32:calibrate.c   **** *
  33:calibrate.c   **** * Return:
  34:calibrate.c   **** *  array of 20 bytes is loaded into the USB IN ENDPOINT (into the computer)
  35:calibrate.c   **** *
  36:calibrate.c   **** *******************************************************************************/
  37:calibrate.c   **** 
  38:calibrate.c   **** 
  39:calibrate.c   **** 
  40:calibrate.c   **** //void calibrate_TIA(uint8 TIA_resistor_value_index, uint8 ADC_buffer_index) {
  41:calibrate.c   **** void calibrate_TIA(void) {
  51              		.loc 1 41 0
  52              		.cfi_startproc
  53              		@ args = 0, pretend = 0, frame = 24
  54              		@ frame_needed = 1, uses_anonymous_args = 0
  55 0000 B0B5     		push	{r4, r5, r7, lr}
  56              		.cfi_def_cfa_offset 16
  57              		.cfi_offset 4, -16
  58              		.cfi_offset 5, -12
  59              		.cfi_offset 7, -8
  60              		.cfi_offset 14, -4
  61 0002 86B0     		sub	sp, sp, #24
  62              		.cfi_def_cfa_offset 40
  63 0004 00AF     		add	r7, sp, #0
  64              		.cfi_def_cfa_register 7
  42:calibrate.c   ****     
  43:calibrate.c   ****     // The IDAC only 
  44:calibrate.c   ****     IDAC_calibrate_Start();
  65              		.loc 1 44 0
  66 0006 FFF7FEFF 		bl	IDAC_calibrate_Start
  45:calibrate.c   ****     IDAC_calibrate_SetValue(0);
  67              		.loc 1 45 0
  68 000a 0020     		movs	r0, #0
  69 000c FFF7FEFF 		bl	IDAC_calibrate_SetValue
ARM GAS  C:\Users\User\AppData\Local\Temp\cc5iFwOs.s 			page 3


  46:calibrate.c   ****     // start the hardware required
  47:calibrate.c   ****     Calibrate_Hardware_Wakeup();
  70              		.loc 1 47 0
  71 0010 FFF7FEFF 		bl	Calibrate_Hardware_Wakeup
  48:calibrate.c   ****     CyDelay(100);
  72              		.loc 1 48 0
  73 0014 6420     		movs	r0, #100
  74 0016 FFF7FEFF 		bl	CyDelay
  49:calibrate.c   ****     
  50:calibrate.c   ****     // decide what currents to use based on TIA resistor and ADC buffer settings
  51:calibrate.c   ****     uint16_t resistor_value = calibrate_TIA_resistor_list[TIA_resistor_value_index];
  75              		.loc 1 51 0
  76 001a 3E4B     		ldr	r3, .L3
  77 001c 1B78     		ldrb	r3, [r3]	@ zero_extendqisi2
  78 001e 1A46     		mov	r2, r3
  79 0020 3D4B     		ldr	r3, .L3+4
  80 0022 53F82230 		ldr	r3, [r3, r2, lsl #2]
  81 0026 7B82     		strh	r3, [r7, #18]	@ movhi
  52:calibrate.c   ****     uint var = 2;
  82              		.loc 1 52 0
  83 0028 0223     		movs	r3, #2
  84 002a FB60     		str	r3, [r7, #12]
  53:calibrate.c   ****     uint16_t IDAC_setting = 0;
  85              		.loc 1 53 0
  86 002c 0023     		movs	r3, #0
  87 002e 7B81     		strh	r3, [r7, #10]	@ movhi
  54:calibrate.c   ****     uint8 ADC_buffer_value = pow(var, ADC_buffer_index);
  88              		.loc 1 54 0
  89 0030 F868     		ldr	r0, [r7, #12]
  90 0032 FFF7FEFF 		bl	__aeabi_ui2d
  91 0036 0446     		mov	r4, r0
  92 0038 0D46     		mov	r5, r1
  93 003a 384B     		ldr	r3, .L3+8
  94 003c 1B78     		ldrb	r3, [r3]	@ zero_extendqisi2
  95 003e 1846     		mov	r0, r3
  96 0040 FFF7FEFF 		bl	__aeabi_ui2d
  97 0044 0246     		mov	r2, r0
  98 0046 0B46     		mov	r3, r1
  99 0048 2046     		mov	r0, r4
 100 004a 2946     		mov	r1, r5
 101 004c FFF7FEFF 		bl	pow
 102 0050 0346     		mov	r3, r0
 103 0052 0C46     		mov	r4, r1
 104 0054 1846     		mov	r0, r3
 105 0056 2146     		mov	r1, r4
 106 0058 FFF7FEFF 		bl	__aeabi_d2uiz
 107 005c 0346     		mov	r3, r0
 108 005e 7B72     		strb	r3, [r7, #9]
  55:calibrate.c   ****     // set input current to zero and read ADC
  56:calibrate.c   ****     ADC_DelSig_StartConvert();
 109              		.loc 1 56 0
 110 0060 FFF7FEFF 		bl	ADC_DelSig_StartConvert
  57:calibrate.c   ****     calibrate_step(IDAC_setting, 2);
 111              		.loc 1 57 0
 112 0064 7B89     		ldrh	r3, [r7, #10]
 113 0066 0221     		movs	r1, #2
 114 0068 1846     		mov	r0, r3
ARM GAS  C:\Users\User\AppData\Local\Temp\cc5iFwOs.s 			page 4


 115 006a FFF7FEFF 		bl	calibrate_step
  58:calibrate.c   ****     // calculate the IDAC value needed to get a 1 Volt in the ADC
  59:calibrate.c   ****     // the 8000 is because the IDAC has a 1/8 uA per bit and 8000=1000mV/(1/8 uA per bit)
  60:calibrate.c   ****     float32 transfer = 8000./(ADC_buffer_value*resistor_value);
 116              		.loc 1 60 0
 117 006e 7B7A     		ldrb	r3, [r7, #9]	@ zero_extendqisi2
 118 0070 7A8A     		ldrh	r2, [r7, #18]
 119 0072 02FB03F3 		mul	r3, r2, r3
 120 0076 1846     		mov	r0, r3
 121 0078 FFF7FEFF 		bl	__aeabi_i2d
 122 007c 0346     		mov	r3, r0
 123 007e 0C46     		mov	r4, r1
 124 0080 1A46     		mov	r2, r3
 125 0082 2346     		mov	r3, r4
 126 0084 4FF00000 		mov	r0, #0
 127 0088 2549     		ldr	r1, .L3+12
 128 008a FFF7FEFF 		bl	__aeabi_ddiv
 129 008e 0346     		mov	r3, r0
 130 0090 0C46     		mov	r4, r1
 131 0092 1846     		mov	r0, r3
 132 0094 2146     		mov	r1, r4
 133 0096 FFF7FEFF 		bl	__aeabi_d2f
 134 009a 0346     		mov	r3, r0
 135 009c 7B60     		str	r3, [r7, #4]	@ float
  61:calibrate.c   ****     int transfer_int = (int) transfer;
 136              		.loc 1 61 0
 137 009e 7868     		ldr	r0, [r7, #4]	@ float
 138 00a0 FFF7FEFF 		bl	__aeabi_f2iz
 139 00a4 0346     		mov	r3, r0
 140 00a6 7B61     		str	r3, [r7, #20]
  62:calibrate.c   ****     
  63:calibrate.c   ****     if (transfer_int > 250) 
 141              		.loc 1 63 0
 142 00a8 7B69     		ldr	r3, [r7, #20]
 143 00aa FA2B     		cmp	r3, #250
 144 00ac 04DD     		ble	.L2
  64:calibrate.c   ****         {  // the TIA needs too much current, reduce needs by half.  Is needed for the 20k resistor
  65:calibrate.c   ****         transfer_int /= 2;
 145              		.loc 1 65 0
 146 00ae 7B69     		ldr	r3, [r7, #20]
 147 00b0 DA0F     		lsrs	r2, r3, #31
 148 00b2 1344     		add	r3, r3, r2
 149 00b4 5B10     		asrs	r3, r3, #1
 150 00b6 7B61     		str	r3, [r7, #20]
 151              	.L2:
  66:calibrate.c   ****         }
  67:calibrate.c   ****   
  68:calibrate.c   ****  
  69:calibrate.c   ****     // is not DRY but not sure how to fix
  70:calibrate.c   ****     IDAC_calibrate_SetPolarity(IDAC_calibrate_SINK);
 152              		.loc 1 70 0
 153 00b8 0420     		movs	r0, #4
 154 00ba FFF7FEFF 		bl	IDAC_calibrate_SetPolarity
  71:calibrate.c   ****     calibrate_step(transfer_int, 0);
 155              		.loc 1 71 0
 156 00be 7B69     		ldr	r3, [r7, #20]
 157 00c0 9BB2     		uxth	r3, r3
ARM GAS  C:\Users\User\AppData\Local\Temp\cc5iFwOs.s 			page 5


 158 00c2 0021     		movs	r1, #0
 159 00c4 1846     		mov	r0, r3
 160 00c6 FFF7FEFF 		bl	calibrate_step
  72:calibrate.c   ****     calibrate_step(transfer_int/2, 1);
 161              		.loc 1 72 0
 162 00ca 7B69     		ldr	r3, [r7, #20]
 163 00cc DA0F     		lsrs	r2, r3, #31
 164 00ce 1344     		add	r3, r3, r2
 165 00d0 5B10     		asrs	r3, r3, #1
 166 00d2 9BB2     		uxth	r3, r3
 167 00d4 0121     		movs	r1, #1
 168 00d6 1846     		mov	r0, r3
 169 00d8 FFF7FEFF 		bl	calibrate_step
  73:calibrate.c   ****     IDAC_calibrate_SetPolarity(IDAC_calibrate_SOURCE);
 170              		.loc 1 73 0
 171 00dc 0020     		movs	r0, #0
 172 00de FFF7FEFF 		bl	IDAC_calibrate_SetPolarity
  74:calibrate.c   ****     calibrate_step(transfer_int/2, 3);
 173              		.loc 1 74 0
 174 00e2 7B69     		ldr	r3, [r7, #20]
 175 00e4 DA0F     		lsrs	r2, r3, #31
 176 00e6 1344     		add	r3, r3, r2
 177 00e8 5B10     		asrs	r3, r3, #1
 178 00ea 9BB2     		uxth	r3, r3
 179 00ec 0321     		movs	r1, #3
 180 00ee 1846     		mov	r0, r3
 181 00f0 FFF7FEFF 		bl	calibrate_step
  75:calibrate.c   ****     calibrate_step(transfer_int, 4);
 182              		.loc 1 75 0
 183 00f4 7B69     		ldr	r3, [r7, #20]
 184 00f6 9BB2     		uxth	r3, r3
 185 00f8 0421     		movs	r1, #4
 186 00fa 1846     		mov	r0, r3
 187 00fc FFF7FEFF 		bl	calibrate_step
  76:calibrate.c   ****     IDAC_calibrate_SetValue(0);
 188              		.loc 1 76 0
 189 0100 0020     		movs	r0, #0
 190 0102 FFF7FEFF 		bl	IDAC_calibrate_SetValue
  77:calibrate.c   ****  
  78:calibrate.c   ****     Calibrate_Hardware_Sleep();
 191              		.loc 1 78 0
 192 0106 FFF7FEFF 		bl	Calibrate_Hardware_Sleep
  79:calibrate.c   ****     
  80:calibrate.c   ****     //    helper_WipeIN();
  81:calibrate.c   ****      
  82:calibrate.c   ****     // sprintf(IN_Data_Buffer, "IDAC VALUE %d %d %d %d %d", 
  83:calibrate.c   ****     // calibrate_array.data[0],
  84:calibrate.c   ****     // calibrate_array.data[1],
  85:calibrate.c   ****     // calibrate_array.data[2],
  86:calibrate.c   ****     // calibrate_array.data[3],
  87:calibrate.c   ****     // calibrate_array.data[4]);
  88:calibrate.c   **** 
  89:calibrate.c   ****     // USB_Export_Data(IN_Data_Buffer);
  90:calibrate.c   ****     
  91:calibrate.c   ****     
  92:calibrate.c   ****     //IN_Data_Buffer[0] = '\0';
  93:calibrate.c   ****     
ARM GAS  C:\Users\User\AppData\Local\Temp\cc5iFwOs.s 			page 6


  94:calibrate.c   ****     //sprintf(IN_Data_Buffer, "ADC VALUE  %d %d %d %d %d", 
  95:calibrate.c   ****     //calibrate_array.data[5],
  96:calibrate.c   ****     //calibrate_array.data[6],
  97:calibrate.c   ****     //calibrate_array.data[7],
  98:calibrate.c   ****     //calibrate_array.data[8],
  99:calibrate.c   ****     //calibrate_array.data[9]);
 100:calibrate.c   ****    
 101:calibrate.c   ****     // USB_Export_Data(IN_Data_Buffer);
 102:calibrate.c   ****     // IN_Data_Buffer[0] = '\0';
 103:calibrate.c   **** }
 193              		.loc 1 103 0
 194 010a 00BF     		nop
 195 010c 1837     		adds	r7, r7, #24
 196              		.cfi_def_cfa_offset 16
 197 010e BD46     		mov	sp, r7
 198              		.cfi_def_cfa_register 13
 199              		@ sp needed
 200 0110 B0BD     		pop	{r4, r5, r7, pc}
 201              	.L4:
 202 0112 00BF     		.align	2
 203              	.L3:
 204 0114 00000000 		.word	TIA_resistor_value_index
 205 0118 00000000 		.word	calibrate_TIA_resistor_list
 206 011c 00000000 		.word	ADC_buffer_index
 207 0120 0040BF40 		.word	1086275584
 208              		.cfi_endproc
 209              	.LFE64:
 210              		.size	calibrate_TIA, .-calibrate_TIA
 211              		.section	.text.calibrate_step,"ax",%progbits
 212              		.align	2
 213              		.global	calibrate_step
 214              		.thumb
 215              		.thumb_func
 216              		.type	calibrate_step, %function
 217              	calibrate_step:
 218              	.LFB65:
 104:calibrate.c   **** 
 105:calibrate.c   **** /******************************************************************************
 106:calibrate.c   **** * Function Name: calibrate_step
 107:calibrate.c   **** *******************************************************************************
 108:calibrate.c   **** *
 109:calibrate.c   **** * Summary:
 110:calibrate.c   **** *  Gets a single calibration data point by setting the calibration IDAC and reading
 111:calibrate.c   **** *  the ADC count and saving them in the calibration_array
 112:calibrate.c   **** *
 113:calibrate.c   **** * Parameters:
 114:calibrate.c   **** *  uint16_t IDAC_value: value to set the calibration  IDAC to before measuring with the ADC
 115:calibrate.c   **** *  uint8 IDAC_index: index of where in calibration_array to save the IDAC and ADC data
 116:calibrate.c   **** *
 117:calibrate.c   **** * Global variables:
 118:calibrate.c   **** *  calibration_array: array of saved IDAC and ADC values
 119:calibrate.c   **** *
 120:calibrate.c   **** *******************************************************************************/
 121:calibrate.c   **** 
 122:calibrate.c   **** void calibrate_step(uint16_t IDAC_value, uint8_t IDAC_index) {
 219              		.loc 1 122 0
 220              		.cfi_startproc
ARM GAS  C:\Users\User\AppData\Local\Temp\cc5iFwOs.s 			page 7


 221              		@ args = 0, pretend = 0, frame = 16
 222              		@ frame_needed = 1, uses_anonymous_args = 0
 223 0000 80B5     		push	{r7, lr}
 224              		.cfi_def_cfa_offset 8
 225              		.cfi_offset 7, -8
 226              		.cfi_offset 14, -4
 227 0002 84B0     		sub	sp, sp, #16
 228              		.cfi_def_cfa_offset 24
 229 0004 00AF     		add	r7, sp, #0
 230              		.cfi_def_cfa_register 7
 231 0006 0346     		mov	r3, r0
 232 0008 0A46     		mov	r2, r1
 233 000a FB80     		strh	r3, [r7, #6]	@ movhi
 234 000c 1346     		mov	r3, r2
 235 000e 7B71     		strb	r3, [r7, #5]
 123:calibrate.c   ****     IDAC_calibrate_SetValue(IDAC_value);
 236              		.loc 1 123 0
 237 0010 FB88     		ldrh	r3, [r7, #6]	@ movhi
 238 0012 DBB2     		uxtb	r3, r3
 239 0014 1846     		mov	r0, r3
 240 0016 FFF7FEFF 		bl	IDAC_calibrate_SetValue
 124:calibrate.c   ****     CyDelay(100);  // allow the ADC to settle
 241              		.loc 1 124 0
 242 001a 6420     		movs	r0, #100
 243 001c FFF7FEFF 		bl	CyDelay
 125:calibrate.c   ****     uint16_t ADC_value = ADC_DelSig_GetResult16();
 244              		.loc 1 125 0
 245 0020 FFF7FEFF 		bl	ADC_DelSig_GetResult16
 246 0024 0346     		mov	r3, r0
 247 0026 FB81     		strh	r3, [r7, #14]	@ movhi
 126:calibrate.c   ****     calibrate_array.data[IDAC_index] = IDAC_value;
 248              		.loc 1 126 0
 249 0028 7B79     		ldrb	r3, [r7, #5]	@ zero_extendqisi2
 250 002a B7F90610 		ldrsh	r1, [r7, #6]
 251 002e 074A     		ldr	r2, .L6
 252 0030 22F81310 		strh	r1, [r2, r3, lsl #1]	@ movhi
 127:calibrate.c   ****     calibrate_array.data[IDAC_index+5] = ADC_value;  // 5 because of the way the array is set up
 253              		.loc 1 127 0
 254 0034 7B79     		ldrb	r3, [r7, #5]	@ zero_extendqisi2
 255 0036 0533     		adds	r3, r3, #5
 256 0038 B7F90E10 		ldrsh	r1, [r7, #14]
 257 003c 034A     		ldr	r2, .L6
 258 003e 22F81310 		strh	r1, [r2, r3, lsl #1]	@ movhi
 128:calibrate.c   **** }
 259              		.loc 1 128 0
 260 0042 00BF     		nop
 261 0044 1037     		adds	r7, r7, #16
 262              		.cfi_def_cfa_offset 8
 263 0046 BD46     		mov	sp, r7
 264              		.cfi_def_cfa_register 13
 265              		@ sp needed
 266 0048 80BD     		pop	{r7, pc}
 267              	.L7:
 268 004a 00BF     		.align	2
 269              	.L6:
 270 004c 00000000 		.word	calibrate_array
 271              		.cfi_endproc
ARM GAS  C:\Users\User\AppData\Local\Temp\cc5iFwOs.s 			page 8


 272              	.LFE65:
 273              		.size	calibrate_step, .-calibrate_step
 274              		.section	.text.Calibrate_Hardware_Wakeup,"ax",%progbits
 275              		.align	2
 276              		.global	Calibrate_Hardware_Wakeup
 277              		.thumb
 278              		.thumb_func
 279              		.type	Calibrate_Hardware_Wakeup, %function
 280              	Calibrate_Hardware_Wakeup:
 281              	.LFB66:
 129:calibrate.c   **** 
 130:calibrate.c   **** /******************************************************************************
 131:calibrate.c   **** * Function Name: Calibrate_Hardware_Wakeup
 132:calibrate.c   **** *******************************************************************************
 133:calibrate.c   **** *
 134:calibrate.c   **** * Summary:
 135:calibrate.c   **** *  Wakeup all the hardware needed for the calibration routine and set the AMux to 
 136:calibrate.c   **** *  the correct channel
 137:calibrate.c   **** *
 138:calibrate.c   **** *******************************************************************************/
 139:calibrate.c   **** 
 140:calibrate.c   **** void Calibrate_Hardware_Wakeup(void) {
 282              		.loc 1 140 0
 283              		.cfi_startproc
 284              		@ args = 0, pretend = 0, frame = 0
 285              		@ frame_needed = 1, uses_anonymous_args = 0
 286 0000 80B5     		push	{r7, lr}
 287              		.cfi_def_cfa_offset 8
 288              		.cfi_offset 7, -8
 289              		.cfi_offset 14, -4
 290 0002 00AF     		add	r7, sp, #0
 291              		.cfi_def_cfa_register 7
 141:calibrate.c   ****     AMux_TIA_input_Select(AMux_TIA_calibrat_ch);
 292              		.loc 1 141 0
 293 0004 0020     		movs	r0, #0
 294 0006 FFF7FEFF 		bl	AMux_TIA_input_FastSelect
 142:calibrate.c   ****     TIA_Wakeup();
 295              		.loc 1 142 0
 296 000a FFF7FEFF 		bl	TIA_Wakeup
 143:calibrate.c   ****     VDAC_TIA_Wakeup();
 297              		.loc 1 143 0
 298 000e FFF7FEFF 		bl	VDAC_TIA_Wakeup
 144:calibrate.c   ****   //   ADC_DelSig_Wakeup();
 145:calibrate.c   **** }
 299              		.loc 1 145 0
 300 0012 00BF     		nop
 301 0014 80BD     		pop	{r7, pc}
 302              		.cfi_endproc
 303              	.LFE66:
 304              		.size	Calibrate_Hardware_Wakeup, .-Calibrate_Hardware_Wakeup
 305 0016 00BF     		.section	.text.Calibrate_Hardware_Sleep,"ax",%progbits
 306              		.align	2
 307              		.global	Calibrate_Hardware_Sleep
 308              		.thumb
 309              		.thumb_func
 310              		.type	Calibrate_Hardware_Sleep, %function
 311              	Calibrate_Hardware_Sleep:
ARM GAS  C:\Users\User\AppData\Local\Temp\cc5iFwOs.s 			page 9


 312              	.LFB67:
 146:calibrate.c   **** 
 147:calibrate.c   **** /******************************************************************************
 148:calibrate.c   **** * Function Name: Calibrate_Hardware_Sleep
 149:calibrate.c   **** *******************************************************************************
 150:calibrate.c   **** *
 151:calibrate.c   **** * Summary:
 152:calibrate.c   **** *  Put to sleep all the hardware needed for the calibration routine, stop  
 153:calibrate.c   **** *  the IDAC, and set the AMux to the correct channel
 154:calibrate.c   **** *
 155:calibrate.c   **** *******************************************************************************/
 156:calibrate.c   **** 
 157:calibrate.c   **** void Calibrate_Hardware_Sleep(void) {
 313              		.loc 1 157 0
 314              		.cfi_startproc
 315              		@ args = 0, pretend = 0, frame = 0
 316              		@ frame_needed = 1, uses_anonymous_args = 0
 317 0000 80B5     		push	{r7, lr}
 318              		.cfi_def_cfa_offset 8
 319              		.cfi_offset 7, -8
 320              		.cfi_offset 14, -4
 321 0002 00AF     		add	r7, sp, #0
 322              		.cfi_def_cfa_register 7
 158:calibrate.c   ****     AMux_TIA_input_Select(AMux_TIA_measure_ch);
 323              		.loc 1 158 0
 324 0004 0120     		movs	r0, #1
 325 0006 FFF7FEFF 		bl	AMux_TIA_input_FastSelect
 159:calibrate.c   ****     TIA_Sleep();
 326              		.loc 1 159 0
 327 000a FFF7FEFF 		bl	TIA_Sleep
 160:calibrate.c   ****     VDAC_TIA_Sleep();
 328              		.loc 1 160 0
 329 000e FFF7FEFF 		bl	VDAC_TIA_Sleep
 161:calibrate.c   ****   //  ADC_DelSig_Sleep();
 162:calibrate.c   ****     IDAC_calibrate_Stop();
 330              		.loc 1 162 0
 331 0012 FFF7FEFF 		bl	IDAC_calibrate_Stop
 163:calibrate.c   **** }
 332              		.loc 1 163 0
 333 0016 00BF     		nop
 334 0018 80BD     		pop	{r7, pc}
 335              		.cfi_endproc
 336              	.LFE67:
 337              		.size	Calibrate_Hardware_Sleep, .-Calibrate_Hardware_Sleep
 338 001a 00BF     		.text
 339              	.Letext0:
 340              		.file 2 "c:\\program files (x86)\\cypress\\psoc creator\\4.4\\psoc creator\\import\\gnu\\arm\\5.4.
 341              		.file 3 "c:\\program files (x86)\\cypress\\psoc creator\\4.4\\psoc creator\\import\\gnu\\arm\\5.4.
 342              		.file 4 "Generated_Source\\PSoC5/cytypes.h"
 343              		.file 5 "c:\\program files (x86)\\cypress\\psoc creator\\4.4\\psoc creator\\import\\gnu\\arm\\5.4.
 344              		.file 6 "Generated_Source\\PSoC5/core_cm3.h"
 345              		.file 7 "./globals.h"
 346              		.file 8 "./calibrate.h"
 347              		.file 9 "./adc.h"