ARM GAS  C:\Users\User\AppData\Local\Temp\ccWDcuW1.s 			page 1


   1              		.syntax unified
   2              		.cpu cortex-m3
   3              		.fpu softvfp
   4              		.eabi_attribute 20, 1
   5              		.eabi_attribute 21, 1
   6              		.eabi_attribute 23, 3
   7              		.eabi_attribute 24, 1
   8              		.eabi_attribute 25, 1
   9              		.eabi_attribute 26, 1
  10              		.eabi_attribute 30, 6
  11              		.eabi_attribute 34, 1
  12              		.eabi_attribute 18, 4
  13              		.thumb
  14              		.syntax unified
  15              		.file	"helper_functions.c"
  16              		.text
  17              	.Ltext0:
  18              		.cfi_sections	.debug_frame
  19              		.comm	buffer,64,4
  20              		.comm	calibrate_array,20,4
  21              		.section	.text.helper_Writebyte_EEPROM,"ax",%progbits
  22              		.align	2
  23              		.global	helper_Writebyte_EEPROM
  24              		.thumb
  25              		.thumb_func
  26              		.type	helper_Writebyte_EEPROM, %function
  27              	helper_Writebyte_EEPROM:
  28              	.LFB64:
  29              		.file 1 "helper_functions.c"
   1:helper_functions.c **** /*******************************************************************************
   2:helper_functions.c **** * File Name: helper_functions.c
   3:helper_functions.c **** *
   4:helper_functions.c **** * Description:
   5:helper_functions.c **** *  Functions used by main.
   6:helper_functions.c **** *  basically EEPROM functions at this point.
   7:helper_functions.c **** *
   8:helper_functions.c **** **********************************************************************************
   9:helper_functions.c **** * Copyright Highland Biosciences Ltd
  10:helper_functions.c **** * Copyright Naresuan University, Phitsanulok Thailand
  11:helper_functions.c **** * Released under Creative Commons Attribution-ShareAlike  3.0 (CC BY-SA 3.0 US)
  12:helper_functions.c **** *********************************************************************************/
  13:helper_functions.c **** 
  14:helper_functions.c **** #include <helper_functions.h>
  15:helper_functions.c **** #include <main.h>
  16:helper_functions.c **** 
  17:helper_functions.c **** /******************************************************************************
  18:helper_functions.c **** * Function Name: helper_Writebyte_EEPROM
  19:helper_functions.c **** *******************************************************************************
  20:helper_functions.c **** *
  21:helper_functions.c **** * Summary:
  22:helper_functions.c **** *    Start the eepromm, update the temperature and write a byte to it
  23:helper_functions.c **** *
  24:helper_functions.c **** * Parameters:
  25:helper_functions.c **** *     data: the byte to write in
  26:helper_functions.c **** *     address: the address to write the data at
  27:helper_functions.c **** *
  28:helper_functions.c **** * Return:
ARM GAS  C:\Users\User\AppData\Local\Temp\ccWDcuW1.s 			page 2


  29:helper_functions.c **** *
  30:helper_functions.c **** *******************************************************************************/
  31:helper_functions.c **** 
  32:helper_functions.c **** uint8_t helper_Writebyte_EEPROM(uint8_t data, uint16_t address) {
  30              		.loc 1 32 0
  31              		.cfi_startproc
  32              		@ args = 0, pretend = 0, frame = 16
  33              		@ frame_needed = 1, uses_anonymous_args = 0
  34 0000 80B5     		push	{r7, lr}
  35              		.cfi_def_cfa_offset 8
  36              		.cfi_offset 7, -8
  37              		.cfi_offset 14, -4
  38 0002 84B0     		sub	sp, sp, #16
  39              		.cfi_def_cfa_offset 24
  40 0004 00AF     		add	r7, sp, #0
  41              		.cfi_def_cfa_register 7
  42 0006 0346     		mov	r3, r0
  43 0008 0A46     		mov	r2, r1
  44 000a FB71     		strb	r3, [r7, #7]
  45 000c 1346     		mov	r3, r2	@ movhi
  46 000e BB80     		strh	r3, [r7, #4]	@ movhi
  33:helper_functions.c ****     EEPROM_Start();
  47              		.loc 1 33 0
  48 0010 FFF7FEFF 		bl	EEPROM_Start
  34:helper_functions.c ****     CyDelayUs(10);
  49              		.loc 1 34 0
  50 0014 0A20     		movs	r0, #10
  51 0016 FFF7FEFF 		bl	CyDelayUs
  35:helper_functions.c ****     EEPROM_UpdateTemperature();
  52              		.loc 1 35 0
  53 001a FFF7FEFF 		bl	EEPROM_UpdateTemperature
  36:helper_functions.c ****     uint8_t write_results = EEPROM_WriteByte(data, address);
  54              		.loc 1 36 0
  55 001e BA88     		ldrh	r2, [r7, #4]
  56 0020 FB79     		ldrb	r3, [r7, #7]	@ zero_extendqisi2
  57 0022 1146     		mov	r1, r2
  58 0024 1846     		mov	r0, r3
  59 0026 FFF7FEFF 		bl	EEPROM_WriteByte
  60 002a 0346     		mov	r3, r0
  61 002c FB73     		strb	r3, [r7, #15]
  37:helper_functions.c ****     EEPROM_Stop();
  62              		.loc 1 37 0
  63 002e FFF7FEFF 		bl	EEPROM_Stop
  38:helper_functions.c ****     return write_results;
  64              		.loc 1 38 0
  65 0032 FB7B     		ldrb	r3, [r7, #15]	@ zero_extendqisi2
  39:helper_functions.c **** }
  66              		.loc 1 39 0
  67 0034 1846     		mov	r0, r3
  68 0036 1037     		adds	r7, r7, #16
  69              		.cfi_def_cfa_offset 8
  70 0038 BD46     		mov	sp, r7
  71              		.cfi_def_cfa_register 13
  72              		@ sp needed
  73 003a 80BD     		pop	{r7, pc}
  74              		.cfi_endproc
  75              	.LFE64:
ARM GAS  C:\Users\User\AppData\Local\Temp\ccWDcuW1.s 			page 3


  76              		.size	helper_Writebyte_EEPROM, .-helper_Writebyte_EEPROM
  77              		.section	.text.helper_Readbyte_EEPROM,"ax",%progbits
  78              		.align	2
  79              		.global	helper_Readbyte_EEPROM
  80              		.thumb
  81              		.thumb_func
  82              		.type	helper_Readbyte_EEPROM, %function
  83              	helper_Readbyte_EEPROM:
  84              	.LFB65:
  40:helper_functions.c **** 
  41:helper_functions.c **** /******************************************************************************
  42:helper_functions.c **** * Function Name: helper_Readbyte_EEPROM
  43:helper_functions.c **** *******************************************************************************
  44:helper_functions.c **** *
  45:helper_functions.c **** * Summary:
  46:helper_functions.c **** *    Start the eepromm, update the temperature and read a byte to it
  47:helper_functions.c **** *
  48:helper_functions.c **** * Parameters:
  49:helper_functions.c **** *     address: the address to read the data from
  50:helper_functions.c **** *
  51:helper_functions.c **** * Return:
  52:helper_functions.c **** *     data that was read
  53:helper_functions.c **** *
  54:helper_functions.c **** *******************************************************************************/
  55:helper_functions.c **** 
  56:helper_functions.c **** uint8_t helper_Readbyte_EEPROM(uint16_t address) {
  85              		.loc 1 56 0
  86              		.cfi_startproc
  87              		@ args = 0, pretend = 0, frame = 16
  88              		@ frame_needed = 1, uses_anonymous_args = 0
  89 0000 80B5     		push	{r7, lr}
  90              		.cfi_def_cfa_offset 8
  91              		.cfi_offset 7, -8
  92              		.cfi_offset 14, -4
  93 0002 84B0     		sub	sp, sp, #16
  94              		.cfi_def_cfa_offset 24
  95 0004 00AF     		add	r7, sp, #0
  96              		.cfi_def_cfa_register 7
  97 0006 0346     		mov	r3, r0
  98 0008 FB80     		strh	r3, [r7, #6]	@ movhi
  57:helper_functions.c ****     EEPROM_Start();
  99              		.loc 1 57 0
 100 000a FFF7FEFF 		bl	EEPROM_Start
  58:helper_functions.c ****     CyDelayUs(10);
 101              		.loc 1 58 0
 102 000e 0A20     		movs	r0, #10
 103 0010 FFF7FEFF 		bl	CyDelayUs
  59:helper_functions.c ****     EEPROM_UpdateTemperature();
 104              		.loc 1 59 0
 105 0014 FFF7FEFF 		bl	EEPROM_UpdateTemperature
  60:helper_functions.c ****     CyDelayUs(10);
 106              		.loc 1 60 0
 107 0018 0A20     		movs	r0, #10
 108 001a FFF7FEFF 		bl	CyDelayUs
  61:helper_functions.c ****     uint8_t data = EEPROM_ReadByte(address);
 109              		.loc 1 61 0
 110 001e FB88     		ldrh	r3, [r7, #6]
ARM GAS  C:\Users\User\AppData\Local\Temp\ccWDcuW1.s 			page 4


 111 0020 1846     		mov	r0, r3
 112 0022 FFF7FEFF 		bl	EEPROM_ReadByte
 113 0026 0346     		mov	r3, r0
 114 0028 FB73     		strb	r3, [r7, #15]
  62:helper_functions.c ****     EEPROM_Stop();
 115              		.loc 1 62 0
 116 002a FFF7FEFF 		bl	EEPROM_Stop
  63:helper_functions.c ****     return data;
 117              		.loc 1 63 0
 118 002e FB7B     		ldrb	r3, [r7, #15]	@ zero_extendqisi2
  64:helper_functions.c **** }
 119              		.loc 1 64 0
 120 0030 1846     		mov	r0, r3
 121 0032 1037     		adds	r7, r7, #16
 122              		.cfi_def_cfa_offset 8
 123 0034 BD46     		mov	sp, r7
 124              		.cfi_def_cfa_register 13
 125              		@ sp needed
 126 0036 80BD     		pop	{r7, pc}
 127              		.cfi_endproc
 128              	.LFE65:
 129              		.size	helper_Readbyte_EEPROM, .-helper_Readbyte_EEPROM
 130              		.section	.text.helper_HardwareInit,"ax",%progbits
 131              		.align	2
 132              		.global	helper_HardwareInit
 133              		.thumb
 134              		.thumb_func
 135              		.type	helper_HardwareInit, %function
 136              	helper_HardwareInit:
 137              	.LFB66:
  65:helper_functions.c **** 
  66:helper_functions.c **** /******************************************************************************
  67:helper_functions.c **** * Function Name: helper_HardwareInit
  68:helper_functions.c **** *******************************************************************************
  69:helper_functions.c **** *
  70:helper_functions.c **** * Summary:
  71:helper_functions.c **** *    Start all the hardware needed for an experiment.
  72:helper_functions.c **** *
  73:helper_functions.c **** *******************************************************************************/
  74:helper_functions.c **** void helper_HardwareInit(void){ 
 138              		.loc 1 74 0
 139              		.cfi_startproc
 140              		@ args = 0, pretend = 0, frame = 0
 141              		@ frame_needed = 1, uses_anonymous_args = 0
 142 0000 80B5     		push	{r7, lr}
 143              		.cfi_def_cfa_offset 8
 144              		.cfi_offset 7, -8
 145              		.cfi_offset 14, -4
 146 0002 00AF     		add	r7, sp, #0
 147              		.cfi_def_cfa_register 7
  75:helper_functions.c ****  
  76:helper_functions.c ****     /* setup the communications */
  77:helper_functions.c ****     Clock_PWM_Start();    
 148              		.loc 1 77 0
 149 0004 FFF7FEFF 		bl	Clock_PWM_Start
  78:helper_functions.c ****     LCD_Start();
 150              		.loc 1 78 0
ARM GAS  C:\Users\User\AppData\Local\Temp\ccWDcuW1.s 			page 5


 151 0008 FFF7FEFF 		bl	LCD_Start
  79:helper_functions.c ****     
  80:helper_functions.c ****     /* Initialise system timing */
  81:helper_functions.c ****     PWM_S_Init();
 152              		.loc 1 81 0
 153 000c FFF7FEFF 		bl	PWM_S_Init
  82:helper_functions.c ****     PWM_M_Init();
 154              		.loc 1 82 0
 155 0010 FFF7FEFF 		bl	PWM_M_Init
  83:helper_functions.c ****     
  84:helper_functions.c ****     
  85:helper_functions.c ****     /* Voltage Control Circuit */  
  86:helper_functions.c ****     VDAC_Poise_Init();   
 156              		.loc 1 86 0
 157 0014 FFF7FEFF 		bl	VDAC_Poise_Init
  87:helper_functions.c ****     Opamp_Aux_Init();
 158              		.loc 1 87 0
 159 0018 FFF7FEFF 		bl	Opamp_Aux_Init
  88:helper_functions.c ****     
  89:helper_functions.c ****     AMux_electrode_Init();
 160              		.loc 1 89 0
 161 001c FFF7FEFF 		bl	AMux_electrode_Start
  90:helper_functions.c ****     
  91:helper_functions.c ****    
  92:helper_functions.c ****     /* Current Measuring Circuit */
  93:helper_functions.c ****     ADC_DelSig_Init();
 162              		.loc 1 93 0
 163 0020 FFF7FEFF 		bl	ADC_DelSig_Init
  94:helper_functions.c ****     VDAC_TIA_Init();
 164              		.loc 1 94 0
 165 0024 FFF7FEFF 		bl	VDAC_TIA_Init
  95:helper_functions.c ****     TIA_Init();
 166              		.loc 1 95 0
 167 0028 FFF7FEFF 		bl	TIA_Init
  96:helper_functions.c ****     IDAC_calibrate_Init();
 168              		.loc 1 96 0
 169 002c FFF7FEFF 		bl	IDAC_calibrate_Init
  97:helper_functions.c ****     AMux_TIA_input_Init();
 170              		.loc 1 97 0
 171 0030 FFF7FEFF 		bl	AMux_TIA_input_Start
  98:helper_functions.c ****   
  99:helper_functions.c ****     
 100:helper_functions.c **** }
 172              		.loc 1 100 0
 173 0034 00BF     		nop
 174 0036 80BD     		pop	{r7, pc}
 175              		.cfi_endproc
 176              	.LFE66:
 177              		.size	helper_HardwareInit, .-helper_HardwareInit
 178              		.section	.text.helper_HardwareEnable,"ax",%progbits
 179              		.align	2
 180              		.global	helper_HardwareEnable
 181              		.thumb
 182              		.thumb_func
 183              		.type	helper_HardwareEnable, %function
 184              	helper_HardwareEnable:
 185              	.LFB67:
ARM GAS  C:\Users\User\AppData\Local\Temp\ccWDcuW1.s 			page 6


 101:helper_functions.c **** 
 102:helper_functions.c **** /******************************************************************************
 103:helper_functions.c **** * Function Name: helper_Hardware Enable
 104:helper_functions.c **** *******************************************************************************
 105:helper_functions.c **** *
 106:helper_functions.c **** * Summary:
 107:helper_functions.c **** *    Start all the hardware needed for an experiment.
 108:helper_functions.c **** *
 109:helper_functions.c **** *******************************************************************************/
 110:helper_functions.c **** void helper_HardwareEnable(void){ 
 186              		.loc 1 110 0
 187              		.cfi_startproc
 188              		@ args = 0, pretend = 0, frame = 0
 189              		@ frame_needed = 1, uses_anonymous_args = 0
 190 0000 80B5     		push	{r7, lr}
 191              		.cfi_def_cfa_offset 8
 192              		.cfi_offset 7, -8
 193              		.cfi_offset 14, -4
 194 0002 00AF     		add	r7, sp, #0
 195              		.cfi_def_cfa_register 7
 111:helper_functions.c ****  
 112:helper_functions.c ****     /* setup the communications and system timing */                             
 113:helper_functions.c ****     PWM_M_Enable();         
 196              		.loc 1 113 0
 197 0004 FFF7FEFF 		bl	PWM_M_Enable
 114:helper_functions.c ****     PWM_S_Enable();
 198              		.loc 1 114 0
 199 0008 FFF7FEFF 		bl	PWM_S_Enable
 115:helper_functions.c ****     
 116:helper_functions.c ****     /* Voltage Control Circuit */  
 117:helper_functions.c ****     VDAC_Poise_Enable();
 200              		.loc 1 117 0
 201 000c FFF7FEFF 		bl	VDAC_Poise_Enable
 118:helper_functions.c ****     Opamp_Aux_Enable();
 202              		.loc 1 118 0
 203 0010 FFF7FEFF 		bl	Opamp_Aux_Enable
 119:helper_functions.c ****     
 120:helper_functions.c ****      /* Current Measuring Circuit */   
 121:helper_functions.c ****     ADC_DelSig_Enable();
 204              		.loc 1 121 0
 205 0014 FFF7FEFF 		bl	ADC_DelSig_Enable
 122:helper_functions.c ****     VDAC_TIA_Enable();
 206              		.loc 1 122 0
 207 0018 FFF7FEFF 		bl	VDAC_TIA_Enable
 123:helper_functions.c ****     TIA_Enable();
 208              		.loc 1 123 0
 209 001c FFF7FEFF 		bl	TIA_Enable
 124:helper_functions.c ****     AMux_TIA_input_Select(AMux_TIA_working_electrode_ch);    
 210              		.loc 1 124 0
 211 0020 0120     		movs	r0, #1
 212 0022 FFF7FEFF 		bl	AMux_TIA_input_FastSelect
 125:helper_functions.c **** }
 213              		.loc 1 125 0
 214 0026 00BF     		nop
 215 0028 80BD     		pop	{r7, pc}
 216              		.cfi_endproc
 217              	.LFE67:
ARM GAS  C:\Users\User\AppData\Local\Temp\ccWDcuW1.s 			page 7


 218              		.size	helper_HardwareEnable, .-helper_HardwareEnable
 219 002a 00BF     		.section	.text.helper_HardwareSleep,"ax",%progbits
 220              		.align	2
 221              		.global	helper_HardwareSleep
 222              		.thumb
 223              		.thumb_func
 224              		.type	helper_HardwareSleep, %function
 225              	helper_HardwareSleep:
 226              	.LFB68:
 126:helper_functions.c **** 
 127:helper_functions.c **** /******************************************************************************
 128:helper_functions.c **** * Function Name: helper_HardwareSleep
 129:helper_functions.c **** *******************************************************************************
 130:helper_functions.c **** *
 131:helper_functions.c **** * Summary:
 132:helper_functions.c **** *    Put to sleep all the hardware needed for an experiment.
 133:helper_functions.c **** *
 134:helper_functions.c **** *******************************************************************************/
 135:helper_functions.c **** void helper_HardwareSleep(void){  
 227              		.loc 1 135 0
 228              		.cfi_startproc
 229              		@ args = 0, pretend = 0, frame = 0
 230              		@ frame_needed = 1, uses_anonymous_args = 0
 231 0000 80B5     		push	{r7, lr}
 232              		.cfi_def_cfa_offset 8
 233              		.cfi_offset 7, -8
 234              		.cfi_offset 14, -4
 235 0002 00AF     		add	r7, sp, #0
 236              		.cfi_def_cfa_register 7
 136:helper_functions.c ****     
 137:helper_functions.c ****     /* Voltage Control Circuit */  
 138:helper_functions.c ****     VDAC_Poise_Sleep();
 237              		.loc 1 138 0
 238 0004 FFF7FEFF 		bl	VDAC_Poise_Sleep
 139:helper_functions.c ****     Opamp_Aux_Sleep();
 239              		.loc 1 139 0
 240 0008 FFF7FEFF 		bl	Opamp_Aux_Sleep
 140:helper_functions.c ****     
 141:helper_functions.c ****     /* Current Measuring Circuit */
 142:helper_functions.c **** //    ADC_SigDel_Sleep();
 143:helper_functions.c ****     VDAC_TIA_Sleep();
 241              		.loc 1 143 0
 242 000c FFF7FEFF 		bl	VDAC_TIA_Sleep
 144:helper_functions.c ****     TIA_Sleep();  
 243              		.loc 1 144 0
 244 0010 FFF7FEFF 		bl	TIA_Sleep
 145:helper_functions.c **** }
 245              		.loc 1 145 0
 246 0014 00BF     		nop
 247 0016 80BD     		pop	{r7, pc}
 248              		.cfi_endproc
 249              	.LFE68:
 250              		.size	helper_HardwareSleep, .-helper_HardwareSleep
 251              		.section	.text.helper_HardwareWakeup,"ax",%progbits
 252              		.align	2
 253              		.global	helper_HardwareWakeup
 254              		.thumb
ARM GAS  C:\Users\User\AppData\Local\Temp\ccWDcuW1.s 			page 8


 255              		.thumb_func
 256              		.type	helper_HardwareWakeup, %function
 257              	helper_HardwareWakeup:
 258              	.LFB69:
 146:helper_functions.c **** 
 147:helper_functions.c **** 
 148:helper_functions.c **** /******************************************************************************
 149:helper_functions.c **** * Function Name: helper_HardwareWakeup
 150:helper_functions.c **** *******************************************************************************
 151:helper_functions.c **** *
 152:helper_functions.c **** * Summary:
 153:helper_functions.c **** *    Start all the hardware needed for an experiment.
 154:helper_functions.c **** *
 155:helper_functions.c **** *******************************************************************************/
 156:helper_functions.c **** void helper_HardwareWakeup(void){  // wakeup all the components that have to be on for a reading
 259              		.loc 1 156 0
 260              		.cfi_startproc
 261              		@ args = 0, pretend = 0, frame = 0
 262              		@ frame_needed = 1, uses_anonymous_args = 0
 263 0000 80B5     		push	{r7, lr}
 264              		.cfi_def_cfa_offset 8
 265              		.cfi_offset 7, -8
 266              		.cfi_offset 14, -4
 267 0002 00AF     		add	r7, sp, #0
 268              		.cfi_def_cfa_register 7
 157:helper_functions.c ****         
 158:helper_functions.c ****     /* Voltage Control Circuit */  
 159:helper_functions.c ****     
 160:helper_functions.c ****     VDAC_Poise_Wakeup();
 269              		.loc 1 160 0
 270 0004 FFF7FEFF 		bl	VDAC_Poise_Wakeup
 161:helper_functions.c ****     Opamp_Aux_Wakeup();
 271              		.loc 1 161 0
 272 0008 FFF7FEFF 		bl	Opamp_Aux_Wakeup
 162:helper_functions.c ****     
 163:helper_functions.c ****     /* Current Measuring Circuit */
 164:helper_functions.c ****    
 165:helper_functions.c ****     VDAC_TIA_Wakeup();
 273              		.loc 1 165 0
 274 000c FFF7FEFF 		bl	VDAC_TIA_Wakeup
 166:helper_functions.c ****     TIA_Wakeup();  
 275              		.loc 1 166 0
 276 0010 FFF7FEFF 		bl	TIA_Wakeup
 167:helper_functions.c ****         
 168:helper_functions.c **** }
 277              		.loc 1 168 0
 278 0014 00BF     		nop
 279 0016 80BD     		pop	{r7, pc}
 280              		.cfi_endproc
 281              	.LFE69:
 282              		.size	helper_HardwareWakeup, .-helper_HardwareWakeup
 283              		.section	.text.helper_WipeLCD,"ax",%progbits
 284              		.align	2
 285              		.global	helper_WipeLCD
 286              		.thumb
 287              		.thumb_func
 288              		.type	helper_WipeLCD, %function
ARM GAS  C:\Users\User\AppData\Local\Temp\ccWDcuW1.s 			page 9


 289              	helper_WipeLCD:
 290              	.LFB70:
 169:helper_functions.c **** 
 170:helper_functions.c **** 
 171:helper_functions.c **** /******************************************************************************
 172:helper_functions.c **** * Function Name: helper_WipeLCD
 173:helper_functions.c **** *******************************************************************************
 174:helper_functions.c **** *
 175:helper_functions.c **** * Summary: Wipe the LCD buffers ready for new messages
 176:helper_functions.c **** *
 177:helper_functions.c **** *******************************************************************************/
 178:helper_functions.c **** 
 179:helper_functions.c **** void helper_WipeLCD(void){  // wipe the text 
 291              		.loc 1 179 0
 292              		.cfi_startproc
 293              		@ args = 0, pretend = 0, frame = 0
 294              		@ frame_needed = 1, uses_anonymous_args = 0
 295 0000 80B5     		push	{r7, lr}
 296              		.cfi_def_cfa_offset 8
 297              		.cfi_offset 7, -8
 298              		.cfi_offset 14, -4
 299 0002 00AF     		add	r7, sp, #0
 300              		.cfi_def_cfa_register 7
 180:helper_functions.c ****     memset(LCD_str_top, 0, MAX_LCD_BYTES);          
 301              		.loc 1 180 0
 302 0004 1022     		movs	r2, #16
 303 0006 0021     		movs	r1, #0
 304 0008 0448     		ldr	r0, .L10
 305 000a FFF7FEFF 		bl	memset
 181:helper_functions.c ****     memset(LCD_str_bot, 0, MAX_LCD_BYTES);              
 306              		.loc 1 181 0
 307 000e 1022     		movs	r2, #16
 308 0010 0021     		movs	r1, #0
 309 0012 0348     		ldr	r0, .L10+4
 310 0014 FFF7FEFF 		bl	memset
 182:helper_functions.c **** }
 311              		.loc 1 182 0
 312 0018 00BF     		nop
 313 001a 80BD     		pop	{r7, pc}
 314              	.L11:
 315              		.align	2
 316              	.L10:
 317 001c 00000000 		.word	LCD_str_top
 318 0020 00000000 		.word	LCD_str_bot
 319              		.cfi_endproc
 320              	.LFE70:
 321              		.size	helper_WipeLCD, .-helper_WipeLCD
 322              		.section	.text.helper_WipeLCD_top,"ax",%progbits
 323              		.align	2
 324              		.global	helper_WipeLCD_top
 325              		.thumb
 326              		.thumb_func
 327              		.type	helper_WipeLCD_top, %function
 328              	helper_WipeLCD_top:
 329              	.LFB71:
 183:helper_functions.c **** 
 184:helper_functions.c **** void helper_WipeLCD_top(void){  // wipe the text top line
ARM GAS  C:\Users\User\AppData\Local\Temp\ccWDcuW1.s 			page 10


 330              		.loc 1 184 0
 331              		.cfi_startproc
 332              		@ args = 0, pretend = 0, frame = 0
 333              		@ frame_needed = 1, uses_anonymous_args = 0
 334 0000 80B5     		push	{r7, lr}
 335              		.cfi_def_cfa_offset 8
 336              		.cfi_offset 7, -8
 337              		.cfi_offset 14, -4
 338 0002 00AF     		add	r7, sp, #0
 339              		.cfi_def_cfa_register 7
 185:helper_functions.c ****     memset(LCD_str_top, 0, MAX_LCD_BYTES);          
 340              		.loc 1 185 0
 341 0004 1022     		movs	r2, #16
 342 0006 0021     		movs	r1, #0
 343 0008 0248     		ldr	r0, .L13
 344 000a FFF7FEFF 		bl	memset
 186:helper_functions.c **** }
 345              		.loc 1 186 0
 346 000e 00BF     		nop
 347 0010 80BD     		pop	{r7, pc}
 348              	.L14:
 349 0012 00BF     		.align	2
 350              	.L13:
 351 0014 00000000 		.word	LCD_str_top
 352              		.cfi_endproc
 353              	.LFE71:
 354              		.size	helper_WipeLCD_top, .-helper_WipeLCD_top
 355              		.section	.text.helper_WipeLCD_bot,"ax",%progbits
 356              		.align	2
 357              		.global	helper_WipeLCD_bot
 358              		.thumb
 359              		.thumb_func
 360              		.type	helper_WipeLCD_bot, %function
 361              	helper_WipeLCD_bot:
 362              	.LFB72:
 187:helper_functions.c **** 
 188:helper_functions.c **** void helper_WipeLCD_bot (void){  // wipe the text top line
 363              		.loc 1 188 0
 364              		.cfi_startproc
 365              		@ args = 0, pretend = 0, frame = 0
 366              		@ frame_needed = 1, uses_anonymous_args = 0
 367 0000 80B5     		push	{r7, lr}
 368              		.cfi_def_cfa_offset 8
 369              		.cfi_offset 7, -8
 370              		.cfi_offset 14, -4
 371 0002 00AF     		add	r7, sp, #0
 372              		.cfi_def_cfa_register 7
 189:helper_functions.c ****     memset(LCD_str_bot, 0, MAX_LCD_BYTES);          
 373              		.loc 1 189 0
 374 0004 1022     		movs	r2, #16
 375 0006 0021     		movs	r1, #0
 376 0008 0248     		ldr	r0, .L16
 377 000a FFF7FEFF 		bl	memset
 190:helper_functions.c **** }
 378              		.loc 1 190 0
 379 000e 00BF     		nop
 380 0010 80BD     		pop	{r7, pc}
ARM GAS  C:\Users\User\AppData\Local\Temp\ccWDcuW1.s 			page 11


 381              	.L17:
 382 0012 00BF     		.align	2
 383              	.L16:
 384 0014 00000000 		.word	LCD_str_bot
 385              		.cfi_endproc
 386              	.LFE72:
 387              		.size	helper_WipeLCD_bot, .-helper_WipeLCD_bot
 388              		.section	.text.helper_ClrTx,"ax",%progbits
 389              		.align	2
 390              		.global	helper_ClrTx
 391              		.thumb
 392              		.thumb_func
 393              		.type	helper_ClrTx, %function
 394              	helper_ClrTx:
 395              	.LFB73:
 191:helper_functions.c **** 
 192:helper_functions.c **** 
 193:helper_functions.c **** /******************************************************************************
 194:helper_functions.c **** * Function Name: helper_ClrTx
 195:helper_functions.c **** *******************************************************************************
 196:helper_functions.c **** *
 197:helper_functions.c **** * Summary:
 198:helper_functions.c **** *    Wipe the buffers used to collect output from Host PC
 199:helper_functions.c **** *
 200:helper_functions.c **** *******************************************************************************/
 201:helper_functions.c **** void helper_ClrTx(void)
 202:helper_functions.c **** {        
 396              		.loc 1 202 0
 397              		.cfi_startproc
 398              		@ args = 0, pretend = 0, frame = 0
 399              		@ frame_needed = 1, uses_anonymous_args = 0
 400 0000 80B5     		push	{r7, lr}
 401              		.cfi_def_cfa_offset 8
 402              		.cfi_offset 7, -8
 403              		.cfi_offset 14, -4
 404 0002 00AF     		add	r7, sp, #0
 405              		.cfi_def_cfa_register 7
 203:helper_functions.c ****     memset(TX_Data, 0, USBUART_BUFFER_SIZE);           
 406              		.loc 1 203 0
 407 0004 4022     		movs	r2, #64
 408 0006 0021     		movs	r1, #0
 409 0008 0248     		ldr	r0, .L19
 410 000a FFF7FEFF 		bl	memset
 204:helper_functions.c **** }
 411              		.loc 1 204 0
 412 000e 00BF     		nop
 413 0010 80BD     		pop	{r7, pc}
 414              	.L20:
 415 0012 00BF     		.align	2
 416              	.L19:
 417 0014 00000000 		.word	TX_Data
 418              		.cfi_endproc
 419              	.LFE73:
 420              		.size	helper_ClrTx, .-helper_ClrTx
 421              		.section	.text.helper_ClrRx,"ax",%progbits
 422              		.align	2
 423              		.global	helper_ClrRx
ARM GAS  C:\Users\User\AppData\Local\Temp\ccWDcuW1.s 			page 12


 424              		.thumb
 425              		.thumb_func
 426              		.type	helper_ClrRx, %function
 427              	helper_ClrRx:
 428              	.LFB74:
 205:helper_functions.c **** 
 206:helper_functions.c **** 
 207:helper_functions.c **** /******************************************************************************
 208:helper_functions.c **** * Function Name: helper_WipeIn
 209:helper_functions.c **** *******************************************************************************
 210:helper_functions.c **** *
 211:helper_functions.c **** * Summary:
 212:helper_functions.c **** *    Wipe the buffers used to collect output from Host PC
 213:helper_functions.c **** *
 214:helper_functions.c **** *******************************************************************************/
 215:helper_functions.c **** void helper_ClrRx(void)
 216:helper_functions.c **** {                   
 429              		.loc 1 216 0
 430              		.cfi_startproc
 431              		@ args = 0, pretend = 0, frame = 0
 432              		@ frame_needed = 1, uses_anonymous_args = 0
 433 0000 80B5     		push	{r7, lr}
 434              		.cfi_def_cfa_offset 8
 435              		.cfi_offset 7, -8
 436              		.cfi_offset 14, -4
 437 0002 00AF     		add	r7, sp, #0
 438              		.cfi_def_cfa_register 7
 217:helper_functions.c ****     memset(RX_Data, 0, USBUART_BUFFER_SIZE);           
 439              		.loc 1 217 0
 440 0004 4022     		movs	r2, #64
 441 0006 0021     		movs	r1, #0
 442 0008 0248     		ldr	r0, .L22
 443 000a FFF7FEFF 		bl	memset
 218:helper_functions.c **** }
 444              		.loc 1 218 0
 445 000e 00BF     		nop
 446 0010 80BD     		pop	{r7, pc}
 447              	.L23:
 448 0012 00BF     		.align	2
 449              	.L22:
 450 0014 00000000 		.word	RX_Data
 451              		.cfi_endproc
 452              	.LFE74:
 453              		.size	helper_ClrRx, .-helper_ClrRx
 454              		.text
 455              	.Letext0:
 456              		.file 2 "c:\\program files (x86)\\cypress\\psoc creator\\4.4\\psoc creator\\import\\gnu\\arm\\5.4.
 457              		.file 3 "c:\\program files (x86)\\cypress\\psoc creator\\4.4\\psoc creator\\import\\gnu\\arm\\5.4.
 458              		.file 4 "Generated_Source\\PSoC5/cytypes.h"
 459              		.file 5 "Generated_Source\\PSoC5/core_cm3.h"
 460              		.file 6 "./globals.h"
 461              		.file 7 "./calibrate.h"
 462              		.file 8 "./main.h"