ARM GAS  C:\Users\User\AppData\Local\Temp\ccngxmSh.s 			page 1


   1              		.syntax unified
   2              		.cpu cortex-m3
   3              		.fpu softvfp
   4              		.eabi_attribute 20, 1
   5              		.eabi_attribute 21, 1
   6              		.eabi_attribute 23, 3
   7              		.eabi_attribute 24, 1
   8              		.eabi_attribute 25, 1
   9              		.eabi_attribute 26, 1
  10              		.eabi_attribute 30, 6
  11              		.eabi_attribute 34, 1
  12              		.eabi_attribute 18, 4
  13              		.thumb
  14              		.syntax unified
  15              		.file	"user_selections.c"
  16              		.text
  17              	.Ltext0:
  18              		.cfi_sections	.debug_frame
  19              		.comm	buffer,64,4
  20              		.comm	calibrate_array,20,4
  21              		.section	.rodata
  22              		.align	2
  23              	.LC0:
  24 0000 3320454C 		.ascii	"3 ELECTRODE MODE\000"
  24      45435452 
  24      4F444520 
  24      4D4F4445 
  24      00
  25 0011 000000   		.align	2
  26              	.LC1:
  27 0014 3220454C 		.ascii	"2 ELECTRODE MODE\000"
  27      45435452 
  27      4F444520 
  27      4D4F4445 
  27      00
  28              		.section	.text.user_setup_electrode,"ax",%progbits
  29              		.align	2
  30              		.global	user_setup_electrode
  31              		.thumb
  32              		.thumb_func
  33              		.type	user_setup_electrode, %function
  34              	user_setup_electrode:
  35              	.LFB64:
  36              		.file 1 "user_selections.c"
   1:user_selections.c **** /*******************************************************************************
   2:user_selections.c **** * File Name: user_selections.c
   3:user_selections.c **** *
   4:user_selections.c **** * Description:
   5:user_selections.c **** *  Make some of functions the user can call through the USB. 
   6:user_selections.c **** *  Only for the longer functions to keep main clearer
   7:user_selections.c **** *
   8:user_selections.c **** **********************************************************************************
   9:user_selections.c **** * Copyright Kyle Vitautas Lopin, Naresuan University, Phitsanulok Thailand
  10:user_selections.c **** * Released under Creative Commons Attribution-ShareAlike  3.0 (CC BY-SA 3.0 US)
  11:user_selections.c **** *********************************************************************************/
  12:user_selections.c **** 
  13:user_selections.c **** #include <project.h>
ARM GAS  C:\Users\User\AppData\Local\Temp\ccngxmSh.s 			page 2


  14:user_selections.c **** #include <main.h>
  15:user_selections.c **** #include <user_selections.h>
  16:user_selections.c **** #include <helper_functions.h>
  17:user_selections.c **** 
  18:user_selections.c **** 
  19:user_selections.c **** void user_setup_electrode (uint8_t data_buffer[])
  20:user_selections.c **** {
  37              		.loc 1 20 0
  38              		.cfi_startproc
  39              		@ args = 0, pretend = 0, frame = 16
  40              		@ frame_needed = 1, uses_anonymous_args = 0
  41 0000 B0B5     		push	{r4, r5, r7, lr}
  42              		.cfi_def_cfa_offset 16
  43              		.cfi_offset 4, -16
  44              		.cfi_offset 5, -12
  45              		.cfi_offset 7, -8
  46              		.cfi_offset 14, -4
  47 0002 84B0     		sub	sp, sp, #16
  48              		.cfi_def_cfa_offset 32
  49 0004 00AF     		add	r7, sp, #0
  50              		.cfi_def_cfa_register 7
  51 0006 7860     		str	r0, [r7, #4]
  21:user_selections.c **** 
  22:user_selections.c ****     uint8_t electrode_config = data_buffer[2]-'0';    
  52              		.loc 1 22 0
  53 0008 7B68     		ldr	r3, [r7, #4]
  54 000a 0233     		adds	r3, r3, #2
  55 000c 1B78     		ldrb	r3, [r3]	@ zero_extendqisi2
  56 000e 303B     		subs	r3, r3, #48
  57 0010 FB73     		strb	r3, [r7, #15]
  23:user_selections.c ****       
  24:user_selections.c ****     helper_ClrTx();
  58              		.loc 1 24 0
  59 0012 FFF7FEFF 		bl	helper_ClrTx
  25:user_selections.c **** 
  26:user_selections.c ****     if (electrode_config == THREE_ELECTRODE_CONFIG) 
  60              		.loc 1 26 0
  61 0016 FB7B     		ldrb	r3, [r7, #15]	@ zero_extendqisi2
  62 0018 012B     		cmp	r3, #1
  63 001a 0ED1     		bne	.L2
  27:user_selections.c ****        {
  28:user_selections.c ****             AMux_electrode_Select(THREE_ELECTRODE_CONFIG);
  64              		.loc 1 28 0
  65 001c 0120     		movs	r0, #1
  66 001e FFF7FEFF 		bl	AMux_electrode_FastSelect
  29:user_selections.c ****             snprintf((char *)TX_Data, USBUART_BUFFER_SIZE, "3 ELECTRODE MODE");                    
  67              		.loc 1 29 0
  68 0022 114A     		ldr	r2, .L4
  69 0024 114B     		ldr	r3, .L4+4
  70 0026 1546     		mov	r5, r2
  71 0028 1C46     		mov	r4, r3
  72 002a 0FCC     		ldmia	r4!, {r0, r1, r2, r3}
  73 002c 2860     		str	r0, [r5]	@ unaligned
  74 002e 6960     		str	r1, [r5, #4]	@ unaligned
  75 0030 AA60     		str	r2, [r5, #8]	@ unaligned
  76 0032 EB60     		str	r3, [r5, #12]	@ unaligned
  77 0034 2378     		ldrb	r3, [r4]
ARM GAS  C:\Users\User\AppData\Local\Temp\ccngxmSh.s 			page 3


  78 0036 2B74     		strb	r3, [r5, #16]
  79 0038 0DE0     		b	.L3
  80              	.L2:
  30:user_selections.c ****        }
  31:user_selections.c ****        else
  32:user_selections.c ****        {
  33:user_selections.c ****             AMux_electrode_Select(TWO_ELECTRODE_CONFIG);
  81              		.loc 1 33 0
  82 003a 0020     		movs	r0, #0
  83 003c FFF7FEFF 		bl	AMux_electrode_FastSelect
  34:user_selections.c ****             snprintf((char *)TX_Data, USBUART_BUFFER_SIZE, "2 ELECTRODE MODE");                
  84              		.loc 1 34 0
  85 0040 094A     		ldr	r2, .L4
  86 0042 0B4B     		ldr	r3, .L4+8
  87 0044 1546     		mov	r5, r2
  88 0046 1C46     		mov	r4, r3
  89 0048 0FCC     		ldmia	r4!, {r0, r1, r2, r3}
  90 004a 2860     		str	r0, [r5]	@ unaligned
  91 004c 6960     		str	r1, [r5, #4]	@ unaligned
  92 004e AA60     		str	r2, [r5, #8]	@ unaligned
  93 0050 EB60     		str	r3, [r5, #12]	@ unaligned
  94 0052 2378     		ldrb	r3, [r4]
  95 0054 2B74     		strb	r3, [r5, #16]
  96              	.L3:
  35:user_selections.c ****        }
  36:user_selections.c ****                 
  37:user_selections.c ****     USB_send (TX_Data, USBUART_BUFFER_SIZE ) ;    
  97              		.loc 1 37 0
  98 0056 4021     		movs	r1, #64
  99 0058 0348     		ldr	r0, .L4
 100 005a FFF7FEFF 		bl	USB_send
  38:user_selections.c **** }
 101              		.loc 1 38 0
 102 005e 00BF     		nop
 103 0060 1037     		adds	r7, r7, #16
 104              		.cfi_def_cfa_offset 16
 105 0062 BD46     		mov	sp, r7
 106              		.cfi_def_cfa_register 13
 107              		@ sp needed
 108 0064 B0BD     		pop	{r4, r5, r7, pc}
 109              	.L5:
 110 0066 00BF     		.align	2
 111              	.L4:
 112 0068 00000000 		.word	TX_Data
 113 006c 00000000 		.word	.LC0
 114 0070 14000000 		.word	.LC1
 115              		.cfi_endproc
 116              	.LFE64:
 117              		.size	user_setup_electrode, .-user_setup_electrode
 118              		.section	.rodata
 119 0025 000000   		.align	2
 120              	.LC2:
 121 0028 41444320 		.ascii	"ADC CONFIGURATION =%d \000"
 121      434F4E46 
 121      49475552 
 121      4154494F 
 121      4E203D25 
ARM GAS  C:\Users\User\AppData\Local\Temp\ccngxmSh.s 			page 4


 122 003f 00       		.align	2
 123              	.LC3:
 124 0040 41444320 		.ascii	"ADC CONFIGURATION ERROR \000"
 124      434F4E46 
 124      49475552 
 124      4154494F 
 124      4E204552 
 125              		.section	.text.user_setup_ADC_CONFIG,"ax",%progbits
 126              		.align	2
 127              		.global	user_setup_ADC_CONFIG
 128              		.thumb
 129              		.thumb_func
 130              		.type	user_setup_ADC_CONFIG, %function
 131              	user_setup_ADC_CONFIG:
 132              	.LFB65:
  39:user_selections.c **** 
  40:user_selections.c **** 
  41:user_selections.c **** /******************************************************************************
  42:user_selections.c **** * Function Name: user_setup_TIA_CONFIG
  43:user_selections.c **** *******************************************************************************
  44:user_selections.c **** *
  45:user_selections.c **** * Summary: Stop all operations by disabling all the isrs and reset the look up table index to 0
  46:user_selections.c **** *
  47:user_selections.c **** * Global variables:
  48:user_selections.c **** *
  49:user_selections.c **** * Parameters:data_buffer[]
  50:user_selections.c **** *
  51:user_selections.c **** * Return: None
  52:user_selections.c **** *
  53:user_selections.c **** *******************************************************************************/
  54:user_selections.c **** 
  55:user_selections.c **** void user_setup_ADC_CONFIG(uint8_t data_buffer[]) 
  56:user_selections.c **** {    
 133              		.loc 1 56 0
 134              		.cfi_startproc
 135              		@ args = 0, pretend = 0, frame = 8
 136              		@ frame_needed = 1, uses_anonymous_args = 0
 137 0000 B0B5     		push	{r4, r5, r7, lr}
 138              		.cfi_def_cfa_offset 16
 139              		.cfi_offset 4, -16
 140              		.cfi_offset 5, -12
 141              		.cfi_offset 7, -8
 142              		.cfi_offset 14, -4
 143 0002 82B0     		sub	sp, sp, #8
 144              		.cfi_def_cfa_offset 24
 145 0004 00AF     		add	r7, sp, #0
 146              		.cfi_def_cfa_register 7
 147 0006 7860     		str	r0, [r7, #4]
  57:user_selections.c ****     ADC_config = data_buffer[2]-'0';
 148              		.loc 1 57 0
 149 0008 7B68     		ldr	r3, [r7, #4]
 150 000a 0233     		adds	r3, r3, #2
 151 000c 1B78     		ldrb	r3, [r3]	@ zero_extendqisi2
 152 000e 303B     		subs	r3, r3, #48
 153 0010 DAB2     		uxtb	r2, r3
 154 0012 184B     		ldr	r3, .L10
 155 0014 1A70     		strb	r2, [r3]
ARM GAS  C:\Users\User\AppData\Local\Temp\ccngxmSh.s 			page 5


  58:user_selections.c ****        
  59:user_selections.c ****     helper_ClrTx();
 156              		.loc 1 59 0
 157 0016 FFF7FEFF 		bl	helper_ClrTx
  60:user_selections.c ****     
  61:user_selections.c ****     if (ADC_config == 1 || ADC_config == 2) 
 158              		.loc 1 61 0
 159 001a 164B     		ldr	r3, .L10
 160 001c 1B78     		ldrb	r3, [r3]	@ zero_extendqisi2
 161 001e 012B     		cmp	r3, #1
 162 0020 03D0     		beq	.L7
 163              		.loc 1 61 0 is_stmt 0 discriminator 1
 164 0022 144B     		ldr	r3, .L10
 165 0024 1B78     		ldrb	r3, [r3]	@ zero_extendqisi2
 166 0026 022B     		cmp	r3, #2
 167 0028 0DD1     		bne	.L8
 168              	.L7:
  62:user_selections.c ****         {
  63:user_selections.c ****             ADC_DelSig_SelectConfiguration(ADC_config, DO_NOT_RESTART_ADC);    
 169              		.loc 1 63 0 is_stmt 1
 170 002a 124B     		ldr	r3, .L10
 171 002c 1B78     		ldrb	r3, [r3]	@ zero_extendqisi2
 172 002e 0021     		movs	r1, #0
 173 0030 1846     		mov	r0, r3
 174 0032 FFF7FEFF 		bl	ADC_DelSig_SelectConfiguration
  64:user_selections.c ****             snprintf((char *)TX_Data, USBUART_BUFFER_SIZE, "ADC CONFIGURATION =%d ",ADC_config) ;  
 175              		.loc 1 64 0
 176 0036 0F4B     		ldr	r3, .L10
 177 0038 1B78     		ldrb	r3, [r3]	@ zero_extendqisi2
 178 003a 0F4A     		ldr	r2, .L10+4
 179 003c 4021     		movs	r1, #64
 180 003e 0F48     		ldr	r0, .L10+8
 181 0040 FFF7FEFF 		bl	snprintf
 182 0044 0DE0     		b	.L9
 183              	.L8:
  65:user_selections.c ****         }
  66:user_selections.c ****         else
  67:user_selections.c ****         {
  68:user_selections.c ****             snprintf((char *)TX_Data, USBUART_BUFFER_SIZE, "ADC CONFIGURATION ERROR ") ;           
 184              		.loc 1 68 0
 185 0046 0D4A     		ldr	r2, .L10+8
 186 0048 0D4B     		ldr	r3, .L10+12
 187 004a 1546     		mov	r5, r2
 188 004c 1C46     		mov	r4, r3
 189 004e 0FCC     		ldmia	r4!, {r0, r1, r2, r3}
 190 0050 2860     		str	r0, [r5]	@ unaligned
 191 0052 6960     		str	r1, [r5, #4]	@ unaligned
 192 0054 AA60     		str	r2, [r5, #8]	@ unaligned
 193 0056 EB60     		str	r3, [r5, #12]	@ unaligned
 194 0058 03CC     		ldmia	r4!, {r0, r1}
 195 005a 2861     		str	r0, [r5, #16]	@ unaligned
 196 005c 6961     		str	r1, [r5, #20]	@ unaligned
 197 005e 2378     		ldrb	r3, [r4]
 198 0060 2B76     		strb	r3, [r5, #24]
 199              	.L9:
  69:user_selections.c ****         }
  70:user_selections.c **** 
ARM GAS  C:\Users\User\AppData\Local\Temp\ccngxmSh.s 			page 6


  71:user_selections.c ****     USB_send (TX_Data, USBUART_BUFFER_SIZE ) ; 
 200              		.loc 1 71 0
 201 0062 4021     		movs	r1, #64
 202 0064 0548     		ldr	r0, .L10+8
 203 0066 FFF7FEFF 		bl	USB_send
  72:user_selections.c **** }
 204              		.loc 1 72 0
 205 006a 00BF     		nop
 206 006c 0837     		adds	r7, r7, #8
 207              		.cfi_def_cfa_offset 16
 208 006e BD46     		mov	sp, r7
 209              		.cfi_def_cfa_register 13
 210              		@ sp needed
 211 0070 B0BD     		pop	{r4, r5, r7, pc}
 212              	.L11:
 213 0072 00BF     		.align	2
 214              	.L10:
 215 0074 00000000 		.word	ADC_config
 216 0078 28000000 		.word	.LC2
 217 007c 00000000 		.word	TX_Data
 218 0080 40000000 		.word	.LC3
 219              		.cfi_endproc
 220              	.LFE65:
 221              		.size	user_setup_ADC_CONFIG, .-user_setup_ADC_CONFIG
 222              		.section	.rodata
 223 0059 000000   		.align	2
 224              	.LC4:
 225 005c 54494120 		.ascii	"TIA RESISTOR =%d \000"
 225      52455349 
 225      53544F52 
 225      203D2564 
 225      2000
 226              		.section	.text.user_setup_TIA_RESISTOR,"ax",%progbits
 227              		.align	2
 228              		.global	user_setup_TIA_RESISTOR
 229              		.thumb
 230              		.thumb_func
 231              		.type	user_setup_TIA_RESISTOR, %function
 232              	user_setup_TIA_RESISTOR:
 233              	.LFB66:
  73:user_selections.c **** 
  74:user_selections.c **** /******************************************************************************
  75:user_selections.c **** * Function Name: user_setup_TIA_RESISTOR
  76:user_selections.c **** *******************************************************************************
  77:user_selections.c **** *
  78:user_selections.c **** * Summary: how the values work, basically 0 - 20k, 1 - 30k, etc.
  79:user_selections.c **** *
  80:user_selections.c **** * Parameters:data_buffer[]
  81:user_selections.c **** *
  82:user_selections.c **** * Return: None
  83:user_selections.c **** *
  84:user_selections.c **** *******************************************************************************/
  85:user_selections.c **** 
  86:user_selections.c **** void user_setup_TIA_RESISTOR(uint8_t data_buffer[]) 
  87:user_selections.c **** {    
 234              		.loc 1 87 0
 235              		.cfi_startproc
ARM GAS  C:\Users\User\AppData\Local\Temp\ccngxmSh.s 			page 7


 236              		@ args = 0, pretend = 0, frame = 8
 237              		@ frame_needed = 1, uses_anonymous_args = 0
 238 0000 80B5     		push	{r7, lr}
 239              		.cfi_def_cfa_offset 8
 240              		.cfi_offset 7, -8
 241              		.cfi_offset 14, -4
 242 0002 82B0     		sub	sp, sp, #8
 243              		.cfi_def_cfa_offset 16
 244 0004 00AF     		add	r7, sp, #0
 245              		.cfi_def_cfa_register 7
 246 0006 7860     		str	r0, [r7, #4]
  88:user_selections.c ****     TIA_resistor_value_index = data_buffer[4]-'0'; 
 247              		.loc 1 88 0
 248 0008 7B68     		ldr	r3, [r7, #4]
 249 000a 0433     		adds	r3, r3, #4
 250 000c 1B78     		ldrb	r3, [r3]	@ zero_extendqisi2
 251 000e 303B     		subs	r3, r3, #48
 252 0010 DAB2     		uxtb	r2, r3
 253 0012 0E4B     		ldr	r3, .L13
 254 0014 1A70     		strb	r2, [r3]
  89:user_selections.c ****     
  90:user_selections.c ****     helper_ClrTx();
 255              		.loc 1 90 0
 256 0016 FFF7FEFF 		bl	helper_ClrTx
  91:user_selections.c ****     
  92:user_selections.c ****      if (TIA_resistor_value_index >= 0 || TIA_resistor_value_index <= 7) 
  93:user_selections.c ****         {
  94:user_selections.c ****             TIA_SetResFB(TIA_resistor_value_index);  
 257              		.loc 1 94 0
 258 001a 0C4B     		ldr	r3, .L13
 259 001c 1B78     		ldrb	r3, [r3]	@ zero_extendqisi2
 260 001e 1846     		mov	r0, r3
 261 0020 FFF7FEFF 		bl	TIA_SetResFB
  95:user_selections.c ****             snprintf((char *)TX_Data, USBUART_BUFFER_SIZE, "TIA RESISTOR =%d ",calibrate_TIA_resist
 262              		.loc 1 95 0
 263 0024 094B     		ldr	r3, .L13
 264 0026 1B78     		ldrb	r3, [r3]	@ zero_extendqisi2
 265 0028 1A46     		mov	r2, r3
 266 002a 094B     		ldr	r3, .L13+4
 267 002c 53F82230 		ldr	r3, [r3, r2, lsl #2]
 268 0030 084A     		ldr	r2, .L13+8
 269 0032 4021     		movs	r1, #64
 270 0034 0848     		ldr	r0, .L13+12
 271 0036 FFF7FEFF 		bl	snprintf
  96:user_selections.c ****         }
  97:user_selections.c ****         else
  98:user_selections.c ****         {
  99:user_selections.c ****           snprintf((char *)TX_Data, USBUART_BUFFER_SIZE, "TIA RESISTOR ERROR ") ;             
 100:user_selections.c ****         }
 101:user_selections.c ****         
 102:user_selections.c ****     USB_send (TX_Data, USBUART_BUFFER_SIZE ) ; 
 272              		.loc 1 102 0
 273 003a 4021     		movs	r1, #64
 274 003c 0648     		ldr	r0, .L13+12
 275 003e FFF7FEFF 		bl	USB_send
 103:user_selections.c **** }
 276              		.loc 1 103 0
ARM GAS  C:\Users\User\AppData\Local\Temp\ccngxmSh.s 			page 8


 277 0042 00BF     		nop
 278 0044 0837     		adds	r7, r7, #8
 279              		.cfi_def_cfa_offset 8
 280 0046 BD46     		mov	sp, r7
 281              		.cfi_def_cfa_register 13
 282              		@ sp needed
 283 0048 80BD     		pop	{r7, pc}
 284              	.L14:
 285 004a 00BF     		.align	2
 286              	.L13:
 287 004c 00000000 		.word	TIA_resistor_value_index
 288 0050 00000000 		.word	calibrate_TIA_resistor_list
 289 0054 5C000000 		.word	.LC4
 290 0058 00000000 		.word	TX_Data
 291              		.cfi_endproc
 292              	.LFE66:
 293              		.size	user_setup_TIA_RESISTOR, .-user_setup_TIA_RESISTOR
 294              		.global	__aeabi_ui2d
 295              		.global	__aeabi_d2uiz
 296              		.section	.rodata
 297 006e 0000     		.align	2
 298              	.LC5:
 299 0070 41444320 		.ascii	"ADC BUFFER GAIN  =%d\000"
 299      42554646 
 299      45522047 
 299      41494E20 
 299      203D2564 
 300              		.section	.text.user_setup_ADC_BUFFER_GAIN,"ax",%progbits
 301              		.align	2
 302              		.global	user_setup_ADC_BUFFER_GAIN
 303              		.thumb
 304              		.thumb_func
 305              		.type	user_setup_ADC_BUFFER_GAIN, %function
 306              	user_setup_ADC_BUFFER_GAIN:
 307              	.LFB67:
 104:user_selections.c **** 
 105:user_selections.c **** /******************************************************************************
 106:user_selections.c **** * Function Name: user_setup_ADC_BUFFER_GAIN
 107:user_selections.c **** *******************************************************************************
 108:user_selections.c **** *
 109:user_selections.c **** * Summary: is the adc buffer gain setting {1, 2, 4, 8}
 110:user_selections.c **** *
 111:user_selections.c **** * Global variables:
 112:user_selections.c **** *
 113:user_selections.c **** * Parameters:data_buffer[]
 114:user_selections.c **** *
 115:user_selections.c **** * Return: None
 116:user_selections.c **** *
 117:user_selections.c **** *******************************************************************************/
 118:user_selections.c **** 
 119:user_selections.c **** void user_setup_ADC_BUFFER_GAIN(uint8_t data_buffer[]) 
 120:user_selections.c **** {    
 308              		.loc 1 120 0
 309              		.cfi_startproc
 310              		@ args = 0, pretend = 0, frame = 8
 311              		@ frame_needed = 1, uses_anonymous_args = 0
 312 0000 90B5     		push	{r4, r7, lr}
ARM GAS  C:\Users\User\AppData\Local\Temp\ccngxmSh.s 			page 9


 313              		.cfi_def_cfa_offset 12
 314              		.cfi_offset 4, -12
 315              		.cfi_offset 7, -8
 316              		.cfi_offset 14, -4
 317 0002 83B0     		sub	sp, sp, #12
 318              		.cfi_def_cfa_offset 24
 319 0004 00AF     		add	r7, sp, #0
 320              		.cfi_def_cfa_register 7
 321 0006 7860     		str	r0, [r7, #4]
 121:user_selections.c ****     ADC_buffer_index = data_buffer[6]-'0'; 
 322              		.loc 1 121 0
 323 0008 7B68     		ldr	r3, [r7, #4]
 324 000a 0633     		adds	r3, r3, #6
 325 000c 1B78     		ldrb	r3, [r3]	@ zero_extendqisi2
 326 000e 303B     		subs	r3, r3, #48
 327 0010 DAB2     		uxtb	r2, r3
 328 0012 164B     		ldr	r3, .L16
 329 0014 1A70     		strb	r2, [r3]
 122:user_selections.c ****     
 123:user_selections.c ****     helper_ClrTx();
 330              		.loc 1 123 0
 331 0016 FFF7FEFF 		bl	helper_ClrTx
 124:user_selections.c ****     
 125:user_selections.c ****     if (ADC_buffer_index >= 0 || ADC_buffer_index <= 3) 
 126:user_selections.c ****     
 127:user_selections.c ****     {
 128:user_selections.c ****         ADC_DelSig_SetBufferGain(ADC_buffer_index); 
 332              		.loc 1 128 0
 333 001a 144B     		ldr	r3, .L16
 334 001c 1B78     		ldrb	r3, [r3]	@ zero_extendqisi2
 335 001e 1846     		mov	r0, r3
 336 0020 FFF7FEFF 		bl	ADC_DelSig_SetBufferGain
 129:user_selections.c ****         snprintf((char *)TX_Data, USBUART_BUFFER_SIZE, "ADC BUFFER GAIN  =%d",  (unsigned int)pow(2
 337              		.loc 1 129 0
 338 0024 114B     		ldr	r3, .L16
 339 0026 1B78     		ldrb	r3, [r3]	@ zero_extendqisi2
 340 0028 1846     		mov	r0, r3
 341 002a FFF7FEFF 		bl	__aeabi_ui2d
 342 002e 0346     		mov	r3, r0
 343 0030 0C46     		mov	r4, r1
 344 0032 1A46     		mov	r2, r3
 345 0034 2346     		mov	r3, r4
 346 0036 4FF00000 		mov	r0, #0
 347 003a 4FF08041 		mov	r1, #1073741824
 348 003e FFF7FEFF 		bl	pow
 349 0042 0346     		mov	r3, r0
 350 0044 0C46     		mov	r4, r1
 351 0046 1846     		mov	r0, r3
 352 0048 2146     		mov	r1, r4
 353 004a FFF7FEFF 		bl	__aeabi_d2uiz
 354 004e 0346     		mov	r3, r0
 355 0050 074A     		ldr	r2, .L16+4
 356 0052 4021     		movs	r1, #64
 357 0054 0748     		ldr	r0, .L16+8
 358 0056 FFF7FEFF 		bl	snprintf
 130:user_selections.c ****     }
 131:user_selections.c ****     else
ARM GAS  C:\Users\User\AppData\Local\Temp\ccngxmSh.s 			page 10


 132:user_selections.c ****     {
 133:user_selections.c ****          snprintf((char *)TX_Data, USBUART_BUFFER_SIZE, "ADC BUFFER GAIN ERROR ");        
 134:user_selections.c ****     }
 135:user_selections.c ****     
 136:user_selections.c ****     USB_send (TX_Data, USBUART_BUFFER_SIZE ) ; 
 359              		.loc 1 136 0
 360 005a 4021     		movs	r1, #64
 361 005c 0548     		ldr	r0, .L16+8
 362 005e FFF7FEFF 		bl	USB_send
 137:user_selections.c **** }
 363              		.loc 1 137 0
 364 0062 00BF     		nop
 365 0064 0C37     		adds	r7, r7, #12
 366              		.cfi_def_cfa_offset 12
 367 0066 BD46     		mov	sp, r7
 368              		.cfi_def_cfa_register 13
 369              		@ sp needed
 370 0068 90BD     		pop	{r4, r7, pc}
 371              	.L17:
 372 006a 00BF     		.align	2
 373              	.L16:
 374 006c 00000000 		.word	ADC_buffer_index
 375 0070 70000000 		.word	.LC5
 376 0074 00000000 		.word	TX_Data
 377              		.cfi_endproc
 378              	.LFE67:
 379              		.size	user_setup_ADC_BUFFER_GAIN, .-user_setup_ADC_BUFFER_GAIN
 380              		.section	.text.user_reset_device,"ax",%progbits
 381              		.align	2
 382              		.global	user_reset_device
 383              		.thumb
 384              		.thumb_func
 385              		.type	user_reset_device, %function
 386              	user_reset_device:
 387              	.LFB68:
 138:user_selections.c ****        
 139:user_selections.c **** 
 140:user_selections.c **** /******************************************************************************
 141:user_selections.c **** * Function Name: user_reset_device
 142:user_selections.c **** *******************************************************************************
 143:user_selections.c **** *
 144:user_selections.c **** * Summary:
 145:user_selections.c **** *  Stop all operations by disabling all the isrs and reset the look up table index to 0
 146:user_selections.c **** *  
 147:user_selections.c **** * Global variables:
 148:user_selections.c **** *
 149:user_selections.c **** * Parameters:
 150:user_selections.c **** *  None
 151:user_selections.c **** *
 152:user_selections.c **** * Return:
 153:user_selections.c **** *  None
 154:user_selections.c **** *
 155:user_selections.c **** *******************************************************************************/
 156:user_selections.c **** void user_reset_device(void) {
 388              		.loc 1 156 0
 389              		.cfi_startproc
 390              		@ args = 0, pretend = 0, frame = 0
ARM GAS  C:\Users\User\AppData\Local\Temp\ccngxmSh.s 			page 11


 391              		@ frame_needed = 1, uses_anonymous_args = 0
 392 0000 80B5     		push	{r7, lr}
 393              		.cfi_def_cfa_offset 8
 394              		.cfi_offset 7, -8
 395              		.cfi_offset 14, -4
 396 0002 00AF     		add	r7, sp, #0
 397              		.cfi_def_cfa_register 7
 157:user_selections.c **** 
 158:user_selections.c ****     helper_HardwareSleep();
 398              		.loc 1 158 0
 399 0004 FFF7FEFF 		bl	helper_HardwareSleep
 159:user_selections.c **** }
 400              		.loc 1 159 0
 401 0008 00BF     		nop
 402 000a 80BD     		pop	{r7, pc}
 403              		.cfi_endproc
 404              	.LFE68:
 405              		.size	user_reset_device, .-user_reset_device
 406              		.section	.rodata
 407 0085 000000   		.align	2
 408              	.LC6:
 409 0088 43686565 		.ascii	"Cheeky Potentiostat II - Rev 1 \000"
 409      6B792050 
 409      6F74656E 
 409      74696F73 
 409      74617420 
 410              		.section	.text.user_identify,"ax",%progbits
 411              		.align	2
 412              		.global	user_identify
 413              		.thumb
 414              		.thumb_func
 415              		.type	user_identify, %function
 416              	user_identify:
 417              	.LFB69:
 160:user_selections.c **** 
 161:user_selections.c **** /******************************************************************************
 162:user_selections.c **** * Function Name: user_identify
 163:user_selections.c **** *******************************************************************************
 164:user_selections.c **** *
 165:user_selections.c **** * Summary:
 166:user_selections.c **** *  identify the device and test if the usb is working properly, this is what the program sends at t
 167:user_selections.c **** *  disable all interruptsincase the program has restarted so the device will also reset
 168:user_selections.c **** *
 169:user_selections.c **** * Parameters:
 170:user_selections.c **** *  None
 171:user_selections.c **** *
 172:user_selections.c **** * Return:
 173:user_selections.c **** *  which version of the device is attached to the USB port
 174:user_selections.c **** *
 175:user_selections.c **** *******************************************************************************/
 176:user_selections.c **** 
 177:user_selections.c **** void user_identify(void) 
 178:user_selections.c **** {
 418              		.loc 1 178 0
 419              		.cfi_startproc
 420              		@ args = 0, pretend = 0, frame = 0
 421              		@ frame_needed = 1, uses_anonymous_args = 0
ARM GAS  C:\Users\User\AppData\Local\Temp\ccngxmSh.s 			page 12


 422 0000 B0B5     		push	{r4, r5, r7, lr}
 423              		.cfi_def_cfa_offset 16
 424              		.cfi_offset 4, -16
 425              		.cfi_offset 5, -12
 426              		.cfi_offset 7, -8
 427              		.cfi_offset 14, -4
 428 0002 00AF     		add	r7, sp, #0
 429              		.cfi_def_cfa_register 7
 179:user_selections.c **** snprintf((char *)TX_Data, USBUART_BUFFER_SIZE, "Cheeky Potentiostat II - Rev 1 ");    
 430              		.loc 1 179 0
 431 0004 094A     		ldr	r2, .L20
 432 0006 0A4B     		ldr	r3, .L20+4
 433 0008 1446     		mov	r4, r2
 434 000a 1D46     		mov	r5, r3
 435 000c 0FCD     		ldmia	r5!, {r0, r1, r2, r3}
 436 000e 2060     		str	r0, [r4]	@ unaligned
 437 0010 6160     		str	r1, [r4, #4]	@ unaligned
 438 0012 A260     		str	r2, [r4, #8]	@ unaligned
 439 0014 E360     		str	r3, [r4, #12]	@ unaligned
 440 0016 0FCD     		ldmia	r5!, {r0, r1, r2, r3}
 441 0018 2061     		str	r0, [r4, #16]	@ unaligned
 442 001a 6161     		str	r1, [r4, #20]	@ unaligned
 443 001c A261     		str	r2, [r4, #24]	@ unaligned
 444 001e E361     		str	r3, [r4, #28]	@ unaligned
 180:user_selections.c **** USB_send (TX_Data, USBUART_BUFFER_SIZE ) ;   
 445              		.loc 1 180 0
 446 0020 4021     		movs	r1, #64
 447 0022 0248     		ldr	r0, .L20
 448 0024 FFF7FEFF 		bl	USB_send
 181:user_selections.c **** }
 449              		.loc 1 181 0
 450 0028 00BF     		nop
 451 002a B0BD     		pop	{r4, r5, r7, pc}
 452              	.L21:
 453              		.align	2
 454              	.L20:
 455 002c 00000000 		.word	TX_Data
 456 0030 88000000 		.word	.LC6
 457              		.cfi_endproc
 458              	.LFE69:
 459              		.size	user_identify, .-user_identify
 460              		.text
 461              	.Letext0:
 462              		.file 2 "c:\\program files (x86)\\cypress\\psoc creator\\4.4\\psoc creator\\import\\gnu\\arm\\5.4.
 463              		.file 3 "c:\\program files (x86)\\cypress\\psoc creator\\4.4\\psoc creator\\import\\gnu\\arm\\5.4.
 464              		.file 4 "Generated_Source\\PSoC5/cytypes.h"
 465              		.file 5 "Generated_Source\\PSoC5/core_cm3.h"
 466              		.file 6 "./globals.h"
 467              		.file 7 "./adc.h"
 468              		.file 8 "./calibrate.h"
 469              		.file 9 "./main.h"