ARM GAS  C:\Users\User\AppData\Local\Temp\ccB3gLec.s 			page 1


   1              		.syntax unified
   2              		.cpu cortex-m3
   3              		.fpu softvfp
   4              		.eabi_attribute 20, 1
   5              		.eabi_attribute 21, 1
   6              		.eabi_attribute 23, 3
   7              		.eabi_attribute 24, 1
   8              		.eabi_attribute 25, 1
   9              		.eabi_attribute 26, 1
  10              		.eabi_attribute 30, 6
  11              		.eabi_attribute 34, 1
  12              		.eabi_attribute 18, 4
  13              		.thumb
  14              		.syntax unified
  15              		.file	"main.c"
  16              		.text
  17              	.Ltext0:
  18              		.cfi_sections	.debug_frame
  19              		.section	.rodata
  20              		.align	2
  21              	.LC0:
  22 0000 4144435F 		.ascii	"ADC_Output\000"
  22      4F757470 
  22      757400
  23              		.section	.text.main,"ax",%progbits
  24              		.align	2
  25              		.global	main
  26              		.thumb
  27              		.thumb_func
  28              		.type	main, %function
  29              	main:
  30              	.LFB63:
  31              		.file 1 "main.c"
   1:main.c        **** /*******************************************************************************
   2:main.c        **** * File Name: main.c
   3:main.c        **** *
   4:main.c        **** * Version: 2.30
   5:main.c        **** *
   6:main.c        **** * Description:
   7:main.c        **** *   This is a source code for example project of ADC single ended mode.
   8:main.c        **** *
   9:main.c        **** *   Variable resistor(pot) is connected to +ve input of ADC using the I/O pin.
  10:main.c        **** *   P0.0. When voltage to positive terminal of ADC is 0, the output displayed
  11:main.c        **** *   on the LCD pannel is 0x0000. As voltage on positive terminal goes on
  12:main.c        **** *   increasing, the  converted value goes on increasing from 0x0000 and reaches
  13:main.c        **** *   0xFFFF when voltage becomes 1.024V. Futher increase in voltage value,
  14:main.c        **** *   doesn't cause any changes to values displayed in the LCD.
  15:main.c        **** *
  16:main.c        **** * Hardware Connections:
  17:main.c        **** *  Connect analog input from Variable resistor to port P0[0] of DVK1 board.
  18:main.c        **** *
  19:main.c        **** ********************************************************************************
  20:main.c        **** * Copyright 2012-2017, Cypress Semiconductor Corporation. All rights reserved.
  21:main.c        **** * This software is owned by Cypress Semiconductor Corporation and is protected
  22:main.c        **** * by and subject to worldwide patent and copyright laws and treaties.
  23:main.c        **** * Therefore, you may use this software only as provided in the license agreement
  24:main.c        **** * accompanying the software package from which you obtained this software.
ARM GAS  C:\Users\User\AppData\Local\Temp\ccB3gLec.s 			page 2


  25:main.c        **** * CYPRESS AND ITS SUPPLIERS MAKE NO WARRANTY OF ANY KIND, EXPRESS OR IMPLIED,
  26:main.c        **** * WITH REGARD TO THIS SOFTWARE, INCLUDING, BUT NOT LIMITED TO, NONINFRINGEMENT,
  27:main.c        **** * IMPLIED WARRANTIES OF MERCHANTABILITY AND FITNESS FOR A PARTICULAR PURPOSE.
  28:main.c        **** *******************************************************************************/
  29:main.c        **** 
  30:main.c        **** #include <project.h>
  31:main.c        **** 
  32:main.c        **** 
  33:main.c        **** /*******************************************************************************
  34:main.c        **** * Function Name: main
  35:main.c        **** ********************************************************************************
  36:main.c        **** *
  37:main.c        **** * Summary:
  38:main.c        **** *  main() performs following functions:
  39:main.c        **** *  1: Initializes the LCD
  40:main.c        **** *  2: Starts ADC
  41:main.c        **** *  3: Starts ADC converstion.
  42:main.c        **** *  4: Gets the converted result and displays it in LCD.
  43:main.c        **** *
  44:main.c        **** * Parameters:
  45:main.c        **** *  None.
  46:main.c        **** *
  47:main.c        **** * Return:
  48:main.c        **** *  None.
  49:main.c        **** *
  50:main.c        **** *******************************************************************************/
  51:main.c        **** int main()
  52:main.c        **** {
  32              		.loc 1 52 0
  33              		.cfi_startproc
  34              		@ args = 0, pretend = 0, frame = 8
  35              		@ frame_needed = 1, uses_anonymous_args = 0
  36 0000 80B5     		push	{r7, lr}
  37              		.cfi_def_cfa_offset 8
  38              		.cfi_offset 7, -8
  39              		.cfi_offset 14, -4
  40 0002 82B0     		sub	sp, sp, #8
  41              		.cfi_def_cfa_offset 16
  42 0004 00AF     		add	r7, sp, #0
  43              		.cfi_def_cfa_register 7
  53:main.c        ****     int32 output;
  54:main.c        **** 
  55:main.c        ****     /* Start the components */
  56:main.c        **** 
  57:main.c        ****     LCD_Start();
  44              		.loc 1 57 0
  45 0006 FFF7FEFF 		bl	LCD_Start
  58:main.c        ****     ADC_DelSig_1_Start();
  46              		.loc 1 58 0
  47 000a FFF7FEFF 		bl	ADC_DelSig_1_Start
  59:main.c        **** 
  60:main.c        ****     /* Start the ADC conversion */
  61:main.c        ****     ADC_DelSig_1_StartConvert();
  48              		.loc 1 61 0
  49 000e FFF7FEFF 		bl	ADC_DelSig_1_StartConvert
  62:main.c        **** 
  63:main.c        ****     /* Display the value of ADC output on LCD */
ARM GAS  C:\Users\User\AppData\Local\Temp\ccB3gLec.s 			page 3


  64:main.c        ****     LCD_Position(0u, 0u);
  50              		.loc 1 64 0
  51 0012 0021     		movs	r1, #0
  52 0014 0020     		movs	r0, #0
  53 0016 FFF7FEFF 		bl	LCD_Position
  65:main.c        ****     LCD_PrintString("ADC_Output");
  54              		.loc 1 65 0
  55 001a 0D48     		ldr	r0, .L5
  56 001c FFF7FEFF 		bl	LCD_PrintString
  57              	.L4:
  66:main.c        **** 
  67:main.c        ****     for(;;)
  68:main.c        ****     {
  69:main.c        ****         if(ADC_DelSig_1_IsEndConversion(ADC_DelSig_1_RETURN_STATUS))
  58              		.loc 1 69 0
  59 0020 0120     		movs	r0, #1
  60 0022 FFF7FEFF 		bl	ADC_DelSig_1_IsEndConversion
  61 0026 0346     		mov	r3, r0
  62 0028 002B     		cmp	r3, #0
  63 002a F9D0     		beq	.L4
  70:main.c        ****         {
  71:main.c        ****             output = ADC_DelSig_1_GetResult32();
  64              		.loc 1 71 0
  65 002c FFF7FEFF 		bl	ADC_DelSig_1_GetResult32
  66 0030 7860     		str	r0, [r7, #4]
  72:main.c        ****             
  73:main.c        ****             /* Saturate ADC result to positive numbers. */
  74:main.c        ****             if(output < 0)
  67              		.loc 1 74 0
  68 0032 7B68     		ldr	r3, [r7, #4]
  69 0034 002B     		cmp	r3, #0
  70 0036 01DA     		bge	.L3
  75:main.c        ****             {
  76:main.c        ****                 output = 0;
  71              		.loc 1 76 0
  72 0038 0023     		movs	r3, #0
  73 003a 7B60     		str	r3, [r7, #4]
  74              	.L3:
  77:main.c        ****             }
  78:main.c        ****             LCD_Position(1u, 0u);
  75              		.loc 1 78 0
  76 003c 0021     		movs	r1, #0
  77 003e 0120     		movs	r0, #1
  78 0040 FFF7FEFF 		bl	LCD_Position
  79:main.c        ****             LCD_PrintInt16((uint16)output);
  79              		.loc 1 79 0
  80 0044 7B68     		ldr	r3, [r7, #4]
  81 0046 9BB2     		uxth	r3, r3
  82 0048 1846     		mov	r0, r3
  83 004a FFF7FEFF 		bl	LCD_PrintInt16
  80:main.c        ****         }
  81:main.c        ****     }
  84              		.loc 1 81 0
  85 004e E7E7     		b	.L4
  86              	.L6:
  87              		.align	2
  88              	.L5:
ARM GAS  C:\Users\User\AppData\Local\Temp\ccB3gLec.s 			page 4


  89 0050 00000000 		.word	.LC0
  90              		.cfi_endproc
  91              	.LFE63:
  92              		.size	main, .-main
  93              		.text
  94              	.Letext0:
  95              		.file 2 "c:\\program files (x86)\\cypress\\psoc creator\\4.4\\psoc creator\\import\\gnu\\arm\\5.4.
  96              		.file 3 "c:\\program files (x86)\\cypress\\psoc creator\\4.4\\psoc creator\\import\\gnu\\arm\\5.4.
  97              		.file 4 "Generated_Source\\PSoC5/cytypes.h"
  98              		.file 5 "Generated_Source\\PSoC5/core_cm3.h"